(dp0
S'distance'
p1
(lp2
sS'path'
p3
(lp4
(dp5
S'y'
p6
F1.2360013723373413
sS'x'
p7
F-1.6028858423233032
sa(dp8
g6
F1.0615354776382446
sg7
F-1.8951548337936401
sa(dp9
g6
F0.6943610000000007
sg7
F-2.2262129999999996
sa(dp10
g6
F0.2943610000000003
sg7
F-2.5262129999999994
sa(dp11
g6
F-0.10563900000000004
sg7
F-2.826212999999999
sa(dp12
g6
F-0.5056390000000004
sg7
F-3.2262129999999996
sa(dp13
g6
F-0.9763640761375427
sg7
F-3.595036506652832
sa(dp14
g6
F-1.4365640878677368
sg7
F-3.9291489124298096
sa(dp15
g6
F-1.7056390000000006
sg7
F-4.126212999999999
sa(dp16
g6
F-2.069817543029785
sg7
F-4.39757776260376
sa(dp17
g6
F-2.4948132038116455
sg7
F-4.677793979644775
sa(dp18
g6
F-2.9056390000000007
sg7
F-4.9762129999999996
sa(dp19
g6
F-3.2967307567596436
sg7
F-5.160888195037842
sa(dp20
g6
F-3.7056390000000006
sg7
F-5.2262129999999996
sa(dp21
g6
F-4.105639
sg7
F-5.126212999999999
sa(dp22
g6
F-4.505639
sg7
F-5.026212999999999
sa(dp23
g6
F-4.905639000000001
sg7
F-4.826212999999999
sa(dp24
g6
F-5.232100009918213
sg7
F-4.580545425415039
sa(dp25
g6
F-5.550455570220947
sg7
F-4.214028835296631
sa(dp26
g6
F-5.703343868255615
sg7
F-3.813189744949341
sa(dp27
g6
F-5.755958557128906
sg7
F-3.4208855628967285
sa(dp28
g6
F-5.574656963348389
sg7
F-3.0454490184783936
sa(dp29
g6
F-5.273238658905029
sg7
F-2.7384185791015625
sa(dp30
g6
F-4.9076247215271
sg7
F-2.474008321762085
sa(dp31
g6
F-4.583392143249512
sg7
F-2.291856050491333
sa(dp32
g6
F-4.244262218475342
sg7
F-2.252589225769043
sa(dp33
g6
F-4.002287864685059
sg7
F-2.2852156162261963
sa(dp34
g6
F-3.751351833343506
sg7
F-2.3156280517578125
sa(dp35
g6
F-3.4056390000000007
sg7
F-2.376212999999999
sa(dp36
g6
F-3.0056390000000004
sg7
F-2.376212999999999
sa(dp37
g6
F-2.605639
sg7
F-2.2762129999999994
sa(dp38
g6
F-2.2056390000000006
sg7
F-1.9762129999999996
sa(dp39
g6
F-1.9556390000000006
sg7
F-1.5762129999999992
sa(dp40
g6
F-1.855639
sg7
F-1.1762129999999988
sa(dp41
g6
F-1.9056390000000007
sg7
F-0.7762129999999985
sa(dp42
g6
F-2.0056390000000004
sg7
F-0.37621299999999813
sa(dp43
g6
F-2.055639
sg7
F0.023787000000000447
sa(dp44
g6
F-2.055639
sg7
F0.4237870000000008
sa(dp45
g6
F-1.9556390000000006
sg7
F0.8237870000000012
sa(dp46
g6
F-1.605639
sg7
F1.1737870000000008
sa(dp47
g6
F-1.2056389999999997
sg7
F1.3237870000000012
sa(dp48
g6
F-0.8056390000000011
sg7
F1.2737870000000004
sa(dp49
g6
F-0.40563900000000075
sg7
F1.1737870000000008
sa(dp50
g6
F-0.005639000000000394
sg7
F0.9237870000000008
sa(dp51
g6
F0.39436099999999996
sg7
F0.5237870000000004
sa(dp52
g6
F0.7443609999999996
sg7
F0.12378700000000187
sa(dp53
g6
F1.0443610000000003
sg7
F-0.2762129999999985
sa(dp54
g6
F1.2943610000000003
sg7
F-0.6762129999999988
sa(dp55
g6
F1.4038387537002563
sg7
F-1.0388429164886475
sa(dp56
g6
F1.3511255979537964
sg7
F-1.335326075553894
sasS'speed'
p57
(lp58
F0.0
aF0.0
aF0.0
aF0.0
aF0.0
aF0.0
aF0.0
aF0.0
aF0.0
aF0.0
aF0.0
aF0.0
aF0.0
aF0.0
aF0.0
aF0.0
aF0.0
aF0.0
aF0.0
aF0.0
aF0.0
aF0.0
aF0.0
aF0.0
aF0.0
aF0.0
aF0.0
aF0.0
aF0.0
aF0.0
aF0.0
aF0.0
aF0.0
aF0.0
aF0.0
aF0.0
aF0.0
aF0.0
aF0.0
aF0.0
aF0.0
aF0.0
aF0.0
aF0.0
aF0.0
aF0.0
aF0.0
aF0.0
aF0.0
aF0.0
aF0.0
aF0.0
aF0.0
aF0.0
aF0.0
aF0.0
aF0.0
aF0.0
aF0.0
aF0.0
aF0.0
aF0.0
aF0.0
aF0.0
aF0.0
aF0.0
aF0.0
aF0.0
aF0.0
aF0.0
aF0.0
aF0.0
aF0.0
aF0.0
aF0.0
aF0.0
aF0.0
aF0.0
aF0.0
aF0.0
aF0.0
aF0.0
aF0.0
aF0.0
aF0.0
aF0.0
aF0.0
aF0.0
aF0.0
aF0.0
aF0.0
aF0.0
aF0.0
aF0.0
aF0.0
aF0.0
aF0.0
aF0.0
aF0.0
aF0.0
aF0.0
aF0.0
aF0.0
aF0.0
aF0.0
aF0.0
aF0.0
aF0.0
aF0.0
aF0.0
aF0.0
aF0.0
aF0.0
aF0.0
aF0.0
aF0.0
aF0.0
aF0.0
aF0.0
aF0.0
aF0.0
aF0.0
aF0.0
aF0.0
aF0.0
aF0.0
aF0.0
aF0.0
aF0.0
aF0.0
aF0.0
aF0.0
aF0.0
aF0.0
aF0.0
aF0.0
aF0.0
aF0.0
aF0.0
aF0.0
aF0.0
aF0.0
aF0.0
aF0.0
aF0.0
aF0.0
aF0.0
aF0.0
aF0.0
aF0.0
aF0.0
aF0.0
aF0.0
aF0.0
aF0.0
aF0.0
aF0.0
aF0.0
aF0.0
aF0.0
aF0.0
aF0.0
aF0.0
aF0.0
aF0.0
aF0.0
aF0.0
aF0.0
aF0.0
aF0.0
aF0.0
aF0.0
aF0.0
aF0.0
aF0.0
aF0.0
aF0.0
aF0.0
aF0.0
aF0.0
aF0.0
aF0.0
aF0.0
aF0.0
aF0.0
aF0.0
aF0.0
aF0.0
aF0.0
aF0.0
aF0.0
aF0.0
aF0.0
aF0.0
aF0.0
aF0.0
aF0.0
aF0.0
aF0.0
aF0.0
aF0.0
aF0.0
aF0.0
aF0.0
aF0.0
aF0.0
aF0.0
aF0.0
aF0.0
aF0.0
aF0.0
aF0.0
aF0.0
aF0.0
aF0.0
aF0.0
aF0.0
aF0.0
aF0.0
aF0.0
aF0.0
aF0.0
aF0.0
aF0.0
aF0.0
aF0.0
aF0.0
aF0.0
aF0.0
aF0.0
aF0.0
aF0.0
aF0.0
aF0.0
aF0.0
aF0.0
aF0.0
aF0.0
aF0.0
aF0.0
aF0.0
aF0.0
aF0.0
aF0.0
aF0.0
aF0.0
aF0.0
aF0.0
aF0.0
aF0.0
aF0.0
aF0.0
aF0.0
aF0.0
aF0.0
aF0.0
aF0.0
aF0.0
aF0.0
aF0.0
aF0.0
aF0.0
aF0.0
aF0.0
aF0.0
aF0.0
aF0.0
aF0.0
aF0.0
aF0.0
aF0.0
aF0.0
aF0.0
aF0.0
aF0.0
aF0.0
aF0.0
aF0.0
aF0.0
aF0.0
aF0.0
aF0.0
aF0.0
aF0.0
aF0.0
aF0.0
aF0.0
aF0.0
aF0.0
aF0.0
aF0.0
aF0.0
aF0.0
aF0.0
aF0.0
aF0.0
aF0.0
aF0.0
aF0.0
aF0.0
aF0.0
aF0.0
aF0.0
aF0.0
aF0.0
aF0.0
aF0.0
aF0.0
aF0.0
aF0.0
aF0.0
aF0.0
aF0.0
aF0.0
aF0.0
aF0.0
aF0.0
aF0.0
aF0.0
aF0.0
aF0.0
aF0.0
aF0.0
aF0.0
aF0.0
aF0.0
aF0.0
aF0.0
aF0.0
aF0.0
aF0.0
aF0.0
aF0.0
aF0.0
aF0.0
aF0.0
aF0.0
aF0.0
aF0.0
aF0.0
aF0.0
aF0.0
aF0.0
aF0.0
aF0.0
aF0.0
aF0.0
aF0.0
aF0.0
aF0.0
aF0.0
aF0.0
aF0.0
aF0.0
aF0.0
aF0.0
aF0.0
aF0.0
aF0.0
aF0.0
aF0.0
aF0.0
aF0.0
aF0.0
aF0.0
aF0.0
aF0.0
aF0.0
aF0.0
aF0.0
aF0.0
aF0.0
aF0.0
aF0.0
aF0.0
aF0.0
aF0.0
aF0.0
aF0.0
aF0.0
aF0.0
aF0.0
aF0.0
aF0.0
aF0.0
aF0.0
aF0.0
aF0.0
aF0.0
aF0.0
aF0.0
aF0.0
aF0.0
aF0.0
aF0.0
aF0.0
aF0.0
aF0.0
aF0.0
aF0.0
aF0.0
aF0.0
aF0.0
aF0.0
aF0.0
aF0.0
aF0.0
aF0.0
aF0.0
aF0.0
aF0.0
aF0.0
aF0.0
aF0.0
aF0.0
aF0.0
aF0.0
aF0.0
aF0.0
aF0.0
aF0.0
aF0.0
aF0.0
aF0.0
aF0.0
aF0.0
aF0.0
aF0.0
aF0.0
aF0.0
aF0.0
aF0.0
aF0.0
aF0.0
aF0.0
aF0.0
aF0.0
aF0.0
aF0.0
aF0.0
aF0.0
aF0.0
aF0.0
aF0.0
aF0.0
aF0.0
aF0.0
aF0.0
aF0.0
aF0.0
aF0.0
aF0.0
aF0.0
aF0.0
aF0.0
aF0.0
aF0.0
aF0.0
aF0.0
aF0.0
aF0.0
aF0.0
aF0.0
aF0.0
aF0.0
aF0.0
aF0.0
aF0.0
aF0.0
aF0.0
aF0.0
aF0.0
aF0.0
aF0.0
aF0.0
aF0.0
aF0.0
aF0.0
aF0.0
aF0.0
aF0.0
aF0.0
aF0.0
aF0.0
aF0.0
aF0.0
aF0.0
aF0.0
aF0.0
aF0.0
aF0.0
aF0.0
aF0.0
aF0.0
aF0.0
aF0.0
aF0.0
aF0.0
aF0.0
aF0.0
aF0.0
aF0.0
aF0.0
aF0.0
aF0.0
aF0.0
aF0.0
aF0.0
aF0.0
aF0.0
aF0.0
aF0.0
aF0.0
aF0.0
aF0.0
aF0.0
aF0.0
aF0.0
aF0.0
aF0.0
aF0.0
aF0.0
aF0.0
aF0.0
aF0.0
aF0.0
aF0.0
aF0.0
aF0.0
aF0.0
aF0.0
aF0.0
aF0.0
aF0.0
aF0.0
aF0.0
aF0.0
aF0.0
aF0.0
aF0.0
aF0.0
aF0.0
aF0.0
aF0.0
aF0.0
aF0.0
aF0.0
aF0.0
aF0.0
aF0.0
aF0.0
aF0.0
aF0.0
aF0.0
aF0.0
aF0.0
aF0.0
aF0.0
aF0.0
aF0.0
aF0.0
aF0.0
aF0.0
aF0.0
aF0.0
aF0.0
aF0.0
aF0.0
aF0.0
aF0.0
aF0.0
aF0.0
aF0.0
aF0.0
aF0.0
aF0.0
aF0.0
aF0.0
aF0.0
aF0.0
aF0.0
aF0.0
aF0.0
aF0.0
aF0.0
aF0.0
aF0.0
aF0.0
aF0.0
aF0.0
aF0.0
aF0.0
aF0.0
aF0.0
aF0.0
aF0.0
aF0.0
aF0.0
aF0.0
aF0.0
aF0.0
aF0.0
aF0.0
aF0.0
aF0.0
aF0.0
aF0.0
aF0.0
aF0.0
aF0.0
aF0.0
aF0.0
aF0.0
aF0.0
aF0.0
aF0.0
aF0.0
aF0.0
aF0.0
aF0.0
aF0.0
aF0.0
aF0.0
aF0.0
aF0.0
aF0.0
aF0.0
aF0.0
aF0.0
aF0.0
aF0.0
aF0.0
aF0.0
aF0.0
aF0.0
aF0.0
aF0.0
aF0.0
aF0.0
aF0.0
aF0.0
aF0.0
aF0.0
aF0.0
aF0.0
aF0.0
aF0.0
aF0.0
aF0.0
aF0.0
aF0.0
aF0.0
aF0.0
aF0.0
aF0.0
aF0.0
aF0.0
aF0.0
aF0.0
aF0.0
aF0.0
aF0.0
aF0.0
aF0.0
aF0.0
aF0.0
aF0.0
aF0.0
aF0.0
aF0.0
aF0.0
aF0.0
aF0.0
aF0.0
aF0.0
aF0.0
aF0.0
aF0.0
aF0.0
aF0.0
aF0.0
aF0.0
aF0.0
aF0.0
aF0.0
aF0.0
aF0.0
aF0.0
aF0.0
aF0.0
aF0.0
aF0.0
aF0.0
aF0.0
aF0.0
aF0.0
aF0.0
aF0.0
aF0.0
aF0.0
aF0.0
aF0.0
aF0.0
aF0.0
aF0.0
aF0.0
aF0.0
aF0.0
aF0.0
aF0.0
aF0.0
aF0.0
aF0.0
aF0.0
aF0.0
aF0.0
aF0.0
aF0.0
aF0.0
aF0.0
aF0.0
aF0.0
aF0.0
aF0.0
aF0.0
aF0.0
aF0.0
aF0.0
aF0.0
aF0.0
aF0.0
aF0.0
aF0.0
aF0.0
aF0.0
aF0.0
aF0.0
aF0.0
aF0.0
aF0.0
aF0.0
aF0.0
aF0.0
aF0.0
aF0.0
aF0.0
aF0.0
aF0.0
aF0.0
aF0.0
aF0.0
aF0.0
aF0.0
aF0.0
aF0.0
aF0.0
aF0.0
aF0.0
aF0.0
aF0.0
aF0.0
aF0.0
aF0.0
aF0.0
aF0.0
aF0.0
aF0.0
aF0.0
aF0.0
aF0.0
aF0.0
aF0.0
aF0.0
aF0.0
aF0.0
aF0.0
aF0.0
aF0.0
aF0.0
aF0.0
aF0.0
aF0.0
aF0.0
aF0.0
aF0.0
aF0.0
aF0.0
aF0.0
aF0.0
aF0.0
aF0.0
aF0.0
aF0.0
aF0.0
aF0.0
aF0.0
aF0.0
aF0.0
aF0.0
aF0.0
aF0.0
aF0.0
aF0.0
aF0.0
aF0.0
aF0.0
aF0.0
aF0.0
aF0.0
aF0.0
aF0.0
aF0.0
aF0.0
aF0.0
aF0.0
aF0.0
aF0.0
aF0.0
aF0.0
aF0.0
aF0.0
aF0.0
aF0.0
aF0.0
aF0.0
aF0.0
aF0.0
aF0.0
aF0.0
aF0.0
aF0.0
aF0.0
aF0.0
aF0.0
aF0.0
aF0.0
aF0.0
aF0.0
aF0.0
aF0.0
aF0.0
aF0.0
aF0.0
aF0.0
aF0.0
aF0.0
aF0.0
aF0.0
aF0.0
aF0.0
aF0.0
aF0.0
aF0.0
aF0.0
aF0.0
aF0.0
aF0.0
aF0.0
aF0.0
aF0.0
aF0.0
aF0.0
aF0.0
aF0.0
aF0.0
aF0.0
aF0.0
aF0.0
aF0.0
aF0.0
aF0.0
aF0.0
aF0.0
aF0.0
aF0.0
aF0.0
aF0.0
aF0.0
aF0.0
aF0.0
aF0.0
aF0.0
aF0.0
aF0.0
aF0.0
aF0.0
aF0.0
aF0.0
aF0.0
aF0.0
aF0.0
aF0.0
aF0.0
aF0.0
aF0.0
aF0.0
aF0.0
aF0.0
aF0.0
aF0.0
aF0.0
aF0.0
aF0.0
aF0.0
aF0.0
aF0.0
aF0.0
aF0.0
aF0.0
aF0.0
aF0.0
aF0.0
aF0.0
aF0.0
aF0.0
aF0.0
aF0.0
aF0.0
aF0.0
aF0.0
aF0.0
aF0.0
aF0.0
aF0.0
aF0.0
aF0.0
aF0.0
aF0.0
aF0.0
aF0.0
aF0.0
aF0.0
aF0.0
aF0.0
aF0.0
aF0.0
aF0.0
aF0.0
aF0.0
aF0.0
aF0.0
aF0.0
aF0.0
aF0.0
aF0.0
aF0.0
aF0.0
aF0.0
aF0.0
aF0.0
aF0.0
aF0.0
aF0.0
aF0.0
aF0.0
aF0.0
aF0.0
aF0.0
aF0.0
aF0.0
aF0.0
aF0.0
aF0.0
aF0.0
aF0.0
aF0.0
aF0.0
aF0.0
aF0.0
aF0.0
aF0.0
aF0.0
aF0.0
aF0.0
aF0.0
aF0.0
aF0.0
aF0.0
aF0.0
aF0.0
aF0.0
aF0.0
aF0.0
aF0.0
aF0.0
aF0.0
aF0.0
aF0.0
aF0.0
aF0.0
aF0.0
aF0.0
aF0.0
aF0.0
aF0.0
aF0.0
aF0.0
aF0.0
aF0.0
aF0.0
aF0.0
aF0.0
aF0.0
aF0.0
aF0.0
aF0.0
aF0.0
aF0.0
aF0.0
aF0.0
aF0.0
aF0.0
aF0.0
aF0.0
aF0.0
aF0.0
aF0.0
aF0.0
aF0.0
aF0.0
aF0.0
aF0.0
aF0.0
aF0.0
aF0.0
aF0.0
aF0.0
aF0.0
aF0.0
aF0.0
aF0.0
aF0.0
aF0.0
aF0.0
aF0.0
aF0.0
aF0.0
aF0.0
aF0.0
aF0.0
aF0.0
aF0.0
aF0.0
aF0.0
aF0.0
aF0.0
aF0.0
aF0.0
aF0.0
aF0.0
aF0.0
aF0.0
aF0.0
aF0.0
aF0.0
aF0.0
aF0.0
aF0.0
aF0.0
aF0.0
aF0.0
aF0.0
aF0.0
aF0.0
aF0.0
aF0.0
aF0.0
aF0.0
aF0.0
aF0.0
aF0.0
aF0.0
aF0.0
aF0.0
aF0.0
aF0.0
aF0.0
aF0.0
aF0.0
aF0.0
aF0.0
aF0.0
aF0.0
aF0.0
aF0.0
aF0.0
aF0.0
aF0.0
aF0.0
aF0.0
aF0.0
aF0.0
aF0.0
aF0.0
aF0.0
aF0.0
aF0.0
aF0.0
aF0.0
aF0.0
aF0.0
aF0.0
aF0.0
aF0.0
aF0.0
aF0.0
aF0.0
aF0.0
aF0.0
aF0.0
aF0.0
aF0.0
aF0.0
aF0.0
aF0.0
aF0.0
aF0.0
aF0.0
aF0.0
aF0.0
aF0.0
aF0.0
aF0.0
aF0.0
aF0.0
aF0.0
aF0.0
aF0.0
aF0.0
aF0.0
aF0.0
aF0.0
aF0.0
aF0.0
aF0.0
aF0.0
aF0.0
aF0.0
aF0.0
aF0.0
aF0.0
aF0.0
aF0.0
aF0.0
aF0.0
aF0.0
aF0.0
aF0.0
aF0.0
aF0.0
aF0.0
aF0.0
aF0.0
aF0.0
aF0.0
aF0.0
aF0.0
aF0.0
aF0.0
aF0.0
aF0.0
aF0.0
aF0.0
aF0.0
aF0.0
aF0.0
aF0.0
aF0.0
aF0.0
aF0.0
aF0.0
aF0.0
aF0.0
aF0.0
aF0.0
aF0.0
aF0.0
aF0.0
aF0.0
aF0.0
aF0.0
aF0.0
aF0.0
aF0.0
aF0.0
aF0.0
aF0.0
aF0.0
aF0.0
aF0.0
aF0.0
aF0.0
aF0.0
aF0.0
aF0.0
aF0.0
aF0.0
aF0.0
aF0.0
aF0.0
aF0.0
aF0.0
aF0.0
aF0.0
aF0.0
aF0.0
aF0.0
aF0.0
aF0.0
aF0.0
aF0.0
aF0.0
aF0.0
aF0.0
aF0.0
aF0.0
aF0.0
aF0.0
aF0.0
aF0.0
aF0.0
aF0.0
aF0.0
aF0.0
aF0.0
aF0.0
aF0.0
aF0.0
aF0.0
aF0.0
aF0.0
aF0.0
aF0.0
aF0.0
aF0.0
aF0.0
aF0.0
aF0.0
aF0.0
aF0.0
aF0.0
aF0.0
aF0.0
aF0.0
aF0.0
aF0.0
aF0.0
aF0.0
aF0.0
aF0.0
aF0.0
aF0.0
aF0.0
aF0.0
aF0.0
aF0.0
aF0.0
aF0.0
aF0.0
aF0.0
aF0.0
aF0.0
aF0.0
aF0.0
aF0.0
aF0.0
aF0.0
aF0.0
aF0.0
aF0.0
aF0.0
aF0.0
aF0.0
aF0.0
aF0.0
aF0.0
aF0.0
aF0.0
aF0.0
aF0.0
aF0.0
aF0.0
aF0.0
aF0.0
aF0.0
aF0.0
aF0.0
aF0.0
aF0.0
aF0.0
aF0.0
aF0.0
aF0.0
aF0.0
aF0.0
aF0.0
aF0.0
aF0.0
aF0.0
aF0.0
aF0.0
aF0.0
aF0.0
aF0.0
aF0.0
aF0.0
aF0.0
aF0.0
aF0.0
aF0.0
aF0.0
aF0.0
aF0.0
aF0.0
aF0.0
aF0.0
aF0.0
aF0.0
aF0.0
aF0.0
aF0.0
aF0.0
aF0.0
aF0.0
aF0.0
aF0.0
aF0.0
aF0.0
aF0.0
aF0.0
aF0.0
aF0.0
aF0.0
aF0.0
aF0.0
aF0.0
aF0.0
aF0.0
aF0.0
aF0.0
aF0.0
aF0.0
aF0.0
aF0.0
aF0.0
aF0.0
aF0.0
aF0.0
aF0.0
aF0.0
aF0.0
aF0.0
aF0.0
aF0.0
aF0.0
aF0.0
aF0.0
aF0.0
aF0.0
aF0.0
aF0.0
aF0.0
aF0.0
aF0.0
aF0.0
aF0.0
aF0.0
aF0.0
aF0.0
aF0.0
aF0.0
aF0.0
aF0.0
aF0.0
aF0.0
aF0.0
aF0.0
aF0.0
aF0.0
aF0.0
aF0.0
aF0.0
aF0.0
aF0.0
aF0.0
aF0.0
aF0.0
aF0.0
aF0.0
aF0.0
aF0.0
aF0.0
aF0.0
aF0.0
aF0.0
aF0.0
aF0.0
aF0.0
aF0.0
aF0.0
aF0.0
aF0.0
aF0.0
aF0.0
aF0.0
aF0.0
aF0.0
aF0.0
aF0.0
aF0.0
aF0.0
aF0.0
aF0.0
aF0.0
aF0.0
aF0.0
aF0.0
aF0.0
aF0.0
aF0.0
aF0.0
aF0.0
aF0.0
aF0.0
aF0.0
aF0.0
aF0.0
aF0.0
aF0.0
aF0.0
aF0.0
aF0.0
aF0.0
aF0.0
aF0.0
aF0.0
aF0.0
aF0.0
aF0.0
aF0.0
aF0.0
aF0.0
aF0.0
aF0.0
aF0.0
aF0.0
aF0.0
aF0.0
aF0.0
aF0.0
aF0.0
aF0.0
aF0.0
aF0.0
aF0.0
aF0.0
aF0.0
aF0.0
aF0.0
aF0.0
aF0.0
aF0.0
aF0.0
aF0.0
aF0.0
aF0.0
aF0.0
aF0.0
aF0.0
aF0.0
aF0.0
aF0.0
aF0.0
aF0.0
aF0.0
aF0.0
aF0.0
aF0.0
aF0.0
aF0.0
aF0.0
aF0.0
aF0.0
aF0.0
aF0.0
aF0.0
aF0.0
aF0.0
aF0.0
aF0.0
aF0.0
aF0.0
aF0.0
aF0.0
aF0.0
aF0.0
aF0.0
aF0.0
aF0.0
aF0.0
aF0.0
aF0.0
aF0.0
aF0.0
aF0.0
aF0.0
aF0.0
aF0.0
aF0.0
aF0.0
aF0.0
aF0.0
aF0.0
aF0.0
aF0.0
aF0.0
aF0.0
aF0.0
aF0.0
aF0.0
aF0.0
aF0.0
aF0.0
aF0.0
aF0.0
aF0.0
aF0.0
aF0.0
aF0.0
aF0.0
aF0.0
aF0.0
aF0.0
aF0.0
aF0.0
aF0.0
aF0.0
aF0.0
aF0.0
aF0.0
aF0.0
aF0.0
aF0.0
aF0.0
aF0.0
aF0.0
aF0.0
aF0.0
aF0.0
aF0.0
aF0.0
aF0.0
aF0.0
aF0.0
aF0.0
aF0.0
aF0.0
aF0.0
aF0.0
aF0.0
aF0.0
aF0.0
aF0.0
aF0.0
aF0.0
aF0.0
aF0.0
aF0.0
aF0.0
aF0.0
aF0.0
aF0.0
aF0.0
aF0.0
aF0.0
aF0.0
aF0.0
aF0.0
aF0.0
aF0.0
aF0.0
aF0.0
aF0.0
aF0.0
aF0.0
aF0.0
aF0.0
aF0.0
aF0.0
aF0.0
aF0.0
aF0.0
aF0.0
aF0.0
aF0.0
aF0.0
aF0.0
aF0.0
aF0.0
aF0.0
aF0.0
aF0.0
aF0.0
aF0.0
aF0.0
aF0.0
aF0.0
aF0.0
aF0.0
aF0.0
aF0.0
aF0.0
aF0.0
aF0.0
aF0.0
aF0.0
aF0.0
aF0.0
aF0.0
aF0.0
aF0.0
aF0.0
aF0.0
aF0.0
aF0.0
aF0.0
aF0.0
aF0.0
aF0.0
aF0.0
aF0.0
aF0.0
aF0.0
aF0.0
aF0.0
aF0.0
aF0.0
aF0.0
aF0.0
aF0.0
aF0.0
aF0.0
aF0.0
aF0.0
aF0.0
aF0.0
aF0.0
aF0.0
aF0.0
aF0.0
aF0.0
aF0.0
aF0.0
aF0.0
aF0.0
aF0.0
aF0.0
aF0.0
aF0.0
aF0.0
aF0.0
aF0.0
aF0.0
aF0.0
aF0.0
aF0.0
aF0.0
aF0.0
aF0.0
aF0.0
aF0.0
aF0.0
aF0.0
aF0.0
aF0.0
aF0.0
aF0.0
aF0.0
aF0.0
aF0.0
aF0.0
aF0.0
aF0.0
aF0.0
aF0.0
aF0.0
aF0.0
aF0.0
aF0.0
aF0.0
aF0.0
aF0.0
aF0.0
aF0.0
aF0.0
aF0.0
aF0.0
aF0.0
aF0.0
aF0.0
aF0.0
aF0.0
aF0.0
aF0.0
aF0.0
aF0.0
aF0.0
aF0.0
aF0.0
aF0.0
aF0.0
aF0.0
aF0.0
aF0.0
aF0.0
aF0.0
aF0.0
aF0.0
aF0.0
aF0.0
aF0.0
aF0.0
aF0.0
aF0.0
aF0.0
aF0.0
aF0.0
aF0.0
aF0.0
aF0.0
aF0.0
aF0.0
aF0.0
aF0.0
aF0.0
aF0.0
aF0.0
aF0.0
aF0.0
aF0.0
aF0.0
aF0.0
aF0.0
aF0.0
aF0.0
aF0.0
aF0.0
aF0.0
aF0.0
aF0.0
aF0.0
aF0.0
aF0.0
aF0.0
aF0.0
aF0.0
aF0.0
aF0.0
aF0.0
aF0.0
aF0.0
aF0.0
aF0.0
aF0.0
aF0.0
aF0.0
aF0.0
aF0.0
aF0.0
aF0.0
aF0.0
aF0.0
aF0.0
aF0.0
aF0.0
aF0.0
aF0.0
aF0.0
aF0.0
aF0.0
aF0.0
aF0.0
aF0.0
aF0.0
aF0.0
aF0.0
aF0.0
aF0.0
aF0.0
aF0.0
aF0.0
aF0.0
aF0.0
aF0.0
aF0.0
aF0.0
aF0.0
aF0.0
aF0.0
aF0.0
aF0.0
aF0.0
aF0.0
aF0.0
aF0.0
aF0.0
aF0.0
aF0.0
aF0.0
aF0.0
aF0.0
aF0.0
aF0.0
aF0.0
aF0.0
aF0.0
aF0.0
aF0.0
aF0.0
aF0.0
aF0.0
aF0.0
aF0.0
aF0.0
aF0.0
aF0.0
aF0.0
aF0.0
aF0.0
aF0.0
aF0.0
aF0.0
aF0.0
aF0.0
aF0.0
aF0.0
aF0.0
aF0.0
aF0.0
aF0.0
aF0.0
aF0.0
aF0.0
aF0.0
aF0.0
aF0.0
aF0.0
aF0.0
aF0.0
aF0.0
aF0.0
aF0.0
aF0.0
aF0.0
aF0.0
aF0.0
aF0.0
aF0.0
aF0.0
aF0.0
aF0.0
aF0.0
aF0.0
aF0.0
aF0.0
aF0.0
aF0.0
aF0.0
aF0.0
aF0.0
aF0.0
aF0.0
aF0.0
aF0.0
aF0.0
aF0.0
aF0.0
aF0.0
aF0.0
aF0.0
aF0.0
aF0.0
aF0.0
aF0.0
aF0.0
aF0.0
aF0.0
aF0.0
aF0.0
aF0.0
aF0.0
aF0.0
aF0.0
aF0.0
aF0.0
aF0.0
aF0.0
aF0.0
aF0.0
aF0.0
aF0.0
aF0.0
aF0.0
aF0.0
aF0.0
aF0.0
aF0.0
aF0.0
aF0.0
aF0.0
aF0.0
aF0.0
aF0.0
aF0.0
aF0.0
aF0.0
aF0.0
aF0.0
aF0.0
aF0.0
aF0.0
aF0.0
aF0.0
aF0.0
aF0.0
aF0.0
aF0.0
aF0.0
aF0.0
aF0.0
aF0.0
aF0.0
aF0.0
aF0.0
aF0.0
aF0.0
aF0.0
aF0.0
aF0.0
aF0.0
aF0.0
aF0.0
aF0.0
aF0.0
aF0.0
aF0.0
aF0.0
aF0.0
aF0.0
aF0.0
aF0.0
aF0.0
aF0.0
aF0.0
aF0.0
aF0.0
aF0.0
aF0.0
aF0.0
aF0.0
aF0.0
aF0.0
aF0.0
aF0.0
aF0.0
aF0.0
aF0.0
aF0.0
aF0.0
aF0.0
aF0.0
aF0.0
aF0.0
aF0.0
aF0.0
aF0.0
aF0.0
aF0.0
aF0.0
aF0.0
aF0.0
aF0.0
aF0.0
aF0.0
aF0.0
aF0.0
aF0.0
aF0.0
aF0.0
aF0.0
aF0.0
aF0.0
aF0.0
aF0.0
aF0.0
aF0.0
aF0.0
aF0.0
aF0.0
aF0.0
aF0.0
aF0.0
aF0.0
aF0.0
aF0.0
aF0.0
aF0.0
aF0.0
aF0.0
aF0.0
aF0.0
aF0.0
aF0.0
aF0.0
aF0.0
aF0.0
aF0.0
aF0.0
aF0.0
aF0.0
aF0.0
aF0.0
aF0.0
aF0.0
aF0.0
aF0.0
aF0.0
aF0.0
aF0.0
aF0.0
aF0.0
aF0.0
aF0.0
aF0.0
aF0.0
aF0.0
aF0.0
aF0.0
aF0.0
aF0.0
aF0.0
aF0.0
aF0.0
aF0.0
aF0.0
aF0.0
aF0.0
aF0.0
aF0.0
aF0.0
aF0.0
aF0.0
aF0.0
aF0.0
aF0.0
aF0.0
aF0.0
aF0.0
aF0.0
aF0.0
aF0.0
aF0.0
aF0.0
aF0.0
aF0.0
aF0.0
aF0.0
aF0.0
aF0.0
aF0.0
aF0.0
aF0.0
aF0.0
aF0.0
aF0.0
aF0.0
aF0.0
aF0.0
aF0.0
aF0.0
aF0.0
aF0.0
aF0.0
aF0.0
aF0.0
aF0.0
aF0.0
aF0.0
aF0.0
aF0.0
aF0.0
aF0.0
aF0.0
aF0.0
aF0.0
aF0.0
aF0.0
aF0.0
aF0.0
aF0.0
aF0.0
aF0.0
aF0.0
aF0.0
aF0.0
aF0.0
aF0.0
aF0.0
aF0.0
aF0.0
aF0.0
aF0.0
aF0.0
aF0.0
aF0.0
aF0.0
aF0.0
aF0.0
aF0.0
aF0.0
aF0.0
aF0.0
aF0.0
aF0.0
aF0.0
aF0.0
aF0.0
aF0.0
aF0.0
aF0.0
aF0.0
aF0.0
aF0.0
aF0.0
aF0.0
aF0.0
aF0.0
aF0.0
aF0.0
aF0.0
aF0.0
aF0.0
aF0.0
aF0.0
aF0.0
aF0.0
aF0.0
aF0.0
aF0.0
aF0.0
aF0.0
aF0.0
aF0.0
aF0.0
aF0.0
aF0.0
aF0.0
aF0.0
aF0.0
aF0.0
aF0.0
aF0.0
aF0.0
aF0.0
aF0.0
aF0.0
aF0.0
aF0.0
aF0.0
aF0.0
aF0.0
aF0.0
aF0.0
aF0.0
aF0.0
aF0.0
aF0.0
aF0.0
aF0.0
aF0.0
aF0.0
aF0.0
aF0.0
aF0.0
aF0.0
aF0.0
aF0.0
aF0.0
aF0.0
aF0.0
aF0.0
aF0.0
aF0.0
aF0.0
aF0.0
aF0.0
aF0.0
aF0.0
aF0.0
aF0.0
aF0.0
aF0.0
aF0.0
aF0.0
aF0.0
aF0.0
aF0.0
aF0.0
aF0.0
aF0.0
aF0.0
aF0.0
aF0.0
aF0.0
aF0.0
aF0.0
aF0.0
aF0.0
aF0.0
aF0.0
aF0.0
aF0.0
aF0.0
aF0.0
aF0.0
aF0.0
aF0.0
aF0.0
aF0.0
aF0.0
aF0.0
aF0.0
aF0.0
aF0.0
aF0.0
aF0.0
aF0.0
aF0.0
aF0.0
aF0.0
aF0.0
aF0.0
aF0.0
aF0.0
aF0.0
aF0.0
aF0.0
aF0.0
aF0.0
aF0.0
aF0.0
aF0.0
aF0.0
aF0.0
aF0.0
aF0.0
aF0.0
aF0.0
aF0.0
aF0.0
aF0.0
aF0.0
aF0.0
aF0.0
aF0.0
aF0.0
aF0.0
aF0.0
aF0.0
aF0.0
aF0.0
aF0.0
aF0.0
aF0.0
aF0.0
aF0.0
aF0.0
aF0.0
aF0.0
aF0.0
aF0.0
aF0.9629999995231628
aF0.5529999732971191
aF0.3179999887943268
aF0.7200000286102295
aF1.1369999647140503
aF1.1449999809265137
aF1.0920000076293945
aF1.7059999704360962
aF1.2510000467300415
aF1.100000023841858
aF2.078000068664551
aF1.2359999418258667
aF1.6150000095367432
aF1.7289999723434448
aF1.812999963760376
aF1.2510000467300415
aF1.8890000581741333
aF1.9869999885559082
aF2.9730000495910645
aF1.6460000276565552
aF2.124000072479248
aF1.6080000400543213
aF2.7839999198913574
aF1.6460000276565552
aF2.374000072479248
aF1.3799999952316284
aF2.2070000171661377
aF1.3730000257492065
aF2.5789999961853027
aF1.5169999599456787
aF2.434999942779541
aF1.63100004196167
aF2.822000026702881
aF1.7669999599456787
aF1.8660000562667847
aF1.7289999723434448
aF2.1089999675750732
aF1.3880000114440918
aF2.2679998874664307
aF1.4559999704360962
aF2.6470000743865967
aF1.5470000505447388
aF2.312999963760376
aF1.7289999723434448
aF2.6549999713897705
aF1.3949999809265137
aF2.2679998874664307
aF1.5770000219345093
aF2.450000047683716
aF1.3799999952316284
aF2.3440001010894775
aF1.7289999723434448
aF2.5940001010894775
aF1.6150000095367432
aF2.1689999103546143
aF1.5549999475479126
aF1.7519999742507935
aF1.6990000009536743
aF1.934000015258789
aF1.6080000400543213
aF2.7230000495910645
aF1.7139999866485596
aF2.184000015258789
aF1.9040000438690186
aF1.88100004196167
aF1.6080000400543213
aF1.440999984741211
aF1.9639999866485596
aF1.5770000219345093
aF1.593000054359436
aF2.0480000972747803
aF1.6990000009536743
aF2.693000078201294
aF2.0480000972747803
aF1.5470000505447388
aF1.934000015258789
aF1.8660000562667847
aF2.1540000438690186
aF1.4110000133514404
aF1.9800000190734863
aF1.5089999437332153
aF1.9110000133514404
aF1.5770000219345093
aF1.7979999780654907
aF1.9110000133514404
aF1.9110000133514404
aF1.652999997138977
aF2.124000072479248
aF1.6380000114440918
aF2.1540000438690186
aF1.3799999952316284
aF1.63100004196167
aF2.009999990463257
aF1.4490000009536743
aF2.321000099182129
aF1.7059999704360962
aF2.4040000438690186
aF1.4329999685287476
aF2.4040000438690186
aF1.774999976158142
aF2.510999917984009
aF1.6150000095367432
aF2.1619999408721924
aF1.8890000581741333
aF1.5549999475479126
aF1.7139999866485596
aF1.88100004196167
aF1.652999997138977
aF2.3510000705718994
aF1.3730000257492065
aF2.244999885559082
aF1.812999963760376
aF2.760999917984009
aF1.593000054359436
aF2.124000072479248
aF1.6230000257492065
aF2.859999895095825
aF1.5240000486373901
aF2.2149999141693115
aF1.4559999704360962
aF2.5179998874664307
aF1.722000002861023
aF2.3889999389648438
aF2.23799991607666
aF1.5470000505447388
aF1.8960000276565552
aF1.6380000114440918
aF1.9420000314712524
aF1.8350000381469727
aF2.3289999961853027
aF1.5169999599456787
aF2.244999885559082
aF1.7599999904632568
aF2.365999937057495
aF1.440999984741211
aF2.321000099182129
aF1.9040000438690186
aF2.631999969482422
aF1.5470000505447388
aF2.2980000972747803
aF1.531999945640564
aF2.2300000190734863
aF1.774999976158142
aF2.4200000762939453
aF1.8509999513626099
aF1.8049999475479126
aF2.0859999656677246
aF1.8350000381469727
aF2.3589999675750732
aF1.4490000009536743
aF2.244999885559082
aF1.7979999780654907
aF2.48799991607666
aF1.5850000381469727
aF2.48799991607666
aF1.722000002861023
aF2.5490000247955322
aF1.5169999599456787
aF2.700000047683716
aF1.88100004196167
aF1.7899999618530273
aF2.2679998874664307
aF1.88100004196167
aF2.5409998893737793
aF1.562000036239624
aF2.427000045776367
aF1.5700000524520874
aF2.3889999389648438
aF2.3510000705718994
aF1.6759999990463257
aF2.6089999675750732
aF1.9040000438690186
aF2.009999990463257
aF2.1010000705718994
aF1.5470000505447388
aF2.4800000190734863
aF1.6380000114440918
aF1.7979999780654907
aF1.9190000295639038
aF1.843000054359436
aF2.677999973297119
aF1.812999963760376
aF2.510999917984009
aF2.259999990463257
aF1.6230000257492065
aF2.563999891281128
aF1.593000054359436
aF2.640000104904175
aF1.8049999475479126
aF2.6089999675750732
aF2.0179998874664307
aF1.6230000257492065
aF2.055000066757202
aF1.8960000276565552
aF2.989000082015991
aF1.934000015258789
aF2.494999885559082
aF1.8049999475479126
aF1.9040000438690186
aF2.191999912261963
aF1.9420000314712524
aF2.822000026702881
aF1.6230000257492065
aF2.6089999675750732
aF1.4859999418258667
aF2.5940001010894775
aF1.7289999723434448
aF2.8369998931884766
aF2.2980000972747803
aF1.6230000257492065
aF2.4800000190734863
aF1.8279999494552612
aF2.563999891281128
aF1.88100004196167
aF2.3889999389648438
aF2.3589999675750732
aF1.5770000219345093
aF2.5179998874664307
aF1.9040000438690186
aF2.7760000228881836
aF1.6990000009536743
aF3.003999948501587
aF1.934000015258789
aF1.7599999904632568
aF2.2980000972747803
aF1.6759999990463257
aF2.746000051498413
aF1.7599999904632568
aF2.890000104904175
aF1.8509999513626099
aF1.8509999513626099
aF2.13100004196167
aF1.8049999475479126
aF2.813999891281128
aF1.812999963760376
aF2.9579999446868896
aF1.843000054359436
aF1.8730000257492065
aF2.0250000953674316
aF1.8960000276565552
aF2.875
aF1.8660000562667847
aF2.7309999465942383
aF1.8049999475479126
aF1.843000054359436
aF1.9040000438690186
aF1.9869999885559082
aF2.693000078201294
aF1.7059999704360962
aF2.494999885559082
aF1.5549999475479126
aF2.571000099182129
aF1.593000054359436
aF3.063999891281128
aF1.9639999866485596
aF1.684000015258789
aF2.4730000495910645
aF1.6460000276565552
aF2.7909998893737793
aF1.843000054359436
aF2.624000072479248
aF2.0859999656677246
aF1.6690000295639038
aF2.4649999141693115
aF1.6759999990463257
aF2.760999917984009
aF1.843000054359436
aF2.555999994277954
aF1.88100004196167
aF1.774999976158142
aF2.078000068664551
aF1.8660000562667847
aF2.5260000228881836
aF1.6610000133514404
aF2.450000047683716
aF1.7599999904632568
aF2.806999921798706
aF1.8279999494552612
aF2.6700000762939453
aF1.8350000381469727
aF1.6230000257492065
aF2.555999994277954
aF1.7599999904632568
aF2.7309999465942383
aF1.7289999723434448
aF2.7760000228881836
aF2.2149999141693115
aF1.562000036239624
aF2.4800000190734863
aF1.8890000581741333
aF2.693000078201294
aF1.5549999475479126
aF2.7909998893737793
aF1.5470000505447388
aF2.4579999446868896
aF1.8730000257492065
aF2.244999885559082
aF2.191999912261963
aF1.6759999990463257
aF2.7149999141693115
aF1.5019999742507935
aF2.5329999923706055
aF1.722000002861023
aF2.822000026702881
aF1.8279999494552612
aF1.8660000562667847
aF2.3889999389648438
aF1.7669999599456787
aF2.244999885559082
aF1.4709999561309814
aF2.3970000743865967
aF1.6610000133514404
aF2.813999891281128
aF1.9420000314712524
aF2.253000020980835
aF2.1010000705718994
aF1.562000036239624
aF1.9639999866485596
aF1.7369999885559082
aF2.374000072479248
aF1.6380000114440918
aF2.5869998931884766
aF1.6690000295639038
aF2.5490000247955322
aF1.49399995803833
aF2.7230000495910645
aF1.5549999475479126
aF2.494999885559082
aF1.8730000257492065
aF2.13100004196167
aF2.002000093460083
aF1.5850000381469727
aF2.0859999656677246
aF1.8200000524520874
aF2.4579999446868896
aF1.593000054359436
aF2.875
aF1.4789999723434448
aF2.374000072479248
aF1.7369999885559082
aF2.693000078201294
aF1.9869999885559082
aF1.74399995803833
aF2.427000045776367
aF1.5700000524520874
aF2.365999937057495
aF1.5240000486373901
aF2.244999885559082
aF2.5869998931884766
aF1.6990000009536743
aF3.0190000534057617
aF1.684000015258789
aF2.0250000953674316
aF1.6990000009536743
aF1.7289999723434448
aF2.4579999446868896
aF1.7059999704360962
aF2.062999963760376
aF2.184000015258789
aF1.4490000009536743
aF2.1089999675750732
aF1.74399995803833
aF2.3589999675750732
aF1.5850000381469727
aF2.555999994277954
aF1.7369999885559082
aF2.4800000190734863
aF1.652999997138977
aF2.822000026702881
aF1.593000054359436
aF2.365999937057495
aF1.9190000295639038
aF2.0399999618530273
aF2.1389999389648438
aF1.4859999418258667
aF2.244999885559082
aF1.7289999723434448
aF2.7079999446868896
aF1.6460000276565552
aF2.813999891281128
aF1.4559999704360962
aF2.4040000438690186
aF1.7669999599456787
aF2.6089999675750732
aF2.0929999351501465
aF1.593000054359436
aF2.0859999656677246
aF1.7289999723434448
aF2.510999917984009
aF1.5089999437332153
aF2.4119999408721924
aF1.6610000133514404
aF2.700000047683716
aF1.7369999885559082
aF2.7839999198913574
aF1.6380000114440918
aF1.531999945640564
aF2.115999937057495
aF1.74399995803833
aF2.5789999961853027
aF1.7059999704360962
aF2.5490000247955322
aF1.5019999742507935
aF2.374000072479248
aF1.4639999866485596
aF2.48799991607666
aF1.6759999990463257
aF2.753000020980835
aF1.934000015258789
aF2.071000099182129
aF1.6690000295639038
aF2.002000093460083
aF2.305999994277954
aF1.88100004196167
aF2.8440001010894775
aF1.6690000295639038
aF2.753000020980835
aF1.4259999990463257
aF2.4800000190734863
aF1.600000023841858
aF2.9809999465942383
aF2.3889999389648438
aF1.6230000257492065
aF2.4579999446868896
aF1.7289999723434448
aF2.4730000495910645
aF1.531999945640564
aF2.427000045776367
aF1.63100004196167
aF2.7149999141693115
aF1.8200000524520874
aF2.677999973297119
aF1.7369999885559082
aF1.9570000171661377
aF1.8049999475479126
aF2.078000068664551
aF2.177000045776367
aF1.6690000295639038
aF2.5329999923706055
aF1.6759999990463257
aF2.381999969482422
aF1.5019999742507935
aF2.4040000438690186
aF1.7519999742507935
aF2.859999895095825
aF1.8960000276565552
aF2.3889999389648438
aF1.63100004196167
aF2.1089999675750732
aF1.8509999513626099
aF2.0859999656677246
aF2.374000072479248
aF1.6150000095367432
aF2.427000045776367
aF1.7599999904632568
aF2.5260000228881836
aF1.562000036239624
aF2.631999969482422
aF1.593000054359436
aF2.5409998893737793
aF1.8960000276565552
aF2.055000066757202
aF1.9570000171661377
aF1.6460000276565552
aF2.002000093460083
aF1.8890000581741333
aF2.571000099182129
aF1.5700000524520874
aF2.434999942779541
aF1.7669999599456787
aF2.7079999446868896
aF1.6610000133514404
aF2.760999917984009
aF1.7059999704360962
aF2.1010000705718994
aF1.9639999866485596
aF1.8049999475479126
aF2.124000072479248
aF1.5089999437332153
aF2.503000020980835
aF1.9570000171661377
aF2.753000020980835
aF1.4559999704360962
aF2.4800000190734863
aF1.600000023841858
aF2.7079999446868896
aF1.9490000009536743
aF2.0329999923706055
aF1.9259999990463257
aF1.6610000133514404
aF2.2909998893737793
aF1.9420000314712524
aF2.7909998893737793
aF1.652999997138977
aF2.640000104904175
aF1.4559999704360962
aF2.5409998893737793
aF1.6150000095367432
aF3.003999948501587
aF2.115999937057495
aF1.684000015258789
aF2.374000072479248
aF1.6690000295639038
aF2.321000099182129
aF1.49399995803833
aF2.555999994277954
aF1.9190000295639038
aF2.8369998931884766
aF1.7979999780654907
aF2.6619999408721924
aF1.7519999742507935
aF1.5399999618530273
aF1.9950000047683716
aF1.934000015258789
aF2.510999917984009
aF1.593000054359436
aF2.48799991607666
aF1.774999976158142
aF2.6619999408721924
aF1.6080000400543213
aF2.9660000801086426
aF1.722000002861023
aF1.5700000524520874
aF2.4040000438690186
aF1.5850000381469727
aF2.617000102996826
aF2.0329999923706055
aF1.9490000009536743
aF2.700000047683716
aF1.5019999742507935
aF2.5179998874664307
aF2.0399999618530273
aF1.6690000295639038
aF2.6019999980926514
aF1.6080000400543213
aF1.8960000276565552
aF1.7669999599456787
aF1.812999963760376
aF2.7690000534057617
aF1.722000002861023
aF3.010999917984009
aF1.5700000524520874
aF2.2829999923706055
aF1.6990000009536743
aF2.6019999980926514
aF1.843000054359436
aF1.9040000438690186
aF2.48799991607666
aF1.7979999780654907
aF2.4649999141693115
aF1.5169999599456787
aF2.4040000438690186
aF1.8049999475479126
aF2.7909998893737793
aF1.774999976158142
aF2.9049999713897705
aF1.8350000381469727
aF1.8580000400543213
aF1.8890000581741333
aF1.8960000276565552
aF2.2980000972747803
aF1.7519999742507935
aF2.5409998893737793
aF1.74399995803833
aF2.5179998874664307
aF1.531999945640564
aF2.640000104904175
aF1.5470000505447388
aF2.571000099182129
aF1.843000054359436
aF2.259999990463257
aF1.7369999885559082
aF1.8730000257492065
aF1.690999984741211
aF2.381999969482422
aF1.8200000524520874
aF1.8509999513626099
aF2.259999990463257
aF1.8730000257492065
aF2.5789999961853027
aF1.5700000524520874
aF2.3589999675750732
aF1.684000015258789
aF2.563999891281128
aF1.5169999599456787
aF2.624000072479248
aF1.5700000524520874
aF2.5179998874664307
aF1.531999945640564
aF2.6549999713897705
aF1.4329999685287476
aF2.5260000228881836
aF1.690999984741211
aF2.867000102996826
aF1.7599999904632568
aF1.9950000047683716
aF1.781999945640564
aF2.0179998874664307
aF1.8279999494552612
aF1.812999963760376
aF1.774999976158142
aF2.0399999618530273
aF1.934000015258789
aF1.63100004196167
aF1.8049999475479126
aF1.8730000257492065
aF1.8350000381469727
aF1.7519999742507935
aF1.690999984741211
aF2.2219998836517334
aF1.7139999866485596
aF1.972000002861023
aF1.8350000381469727
aF1.9950000047683716
aF1.9420000314712524
aF1.600000023841858
aF1.722000002861023
aF1.9190000295639038
aF1.6990000009536743
aF1.972000002861023
aF1.7369999885559082
aF2.259999990463257
aF1.8890000581741333
aF1.7369999885559082
aF1.8049999475479126
aF1.8960000276565552
aF1.7519999742507935
aF1.8200000524520874
aF1.600000023841858
aF2.5940001010894775
aF1.3420000076293945
aF2.3970000743865967
aF1.5089999437332153
aF2.73799991607666
aF1.4490000009536743
aF2.4730000495910645
aF1.5169999599456787
aF2.563999891281128
aF1.3730000257492065
aF2.312999963760376
aF1.3730000257492065
aF2.1540000438690186
aF1.6610000133514404
aF2.365999937057495
aF1.3880000114440918
aF2.23799991607666
aF1.4789999723434448
aF2.253000020980835
aF1.3270000219345093
aF1.9259999990463257
aF1.5470000505447388
aF1.5700000524520874
aF1.9800000190734863
aF1.350000023841858
aF2.124000072479248
aF1.4639999866485596
aF2.0480000972747803
aF1.2970000505447388
aF1.6460000276565552
aF1.9420000314712524
aF1.5089999437332153
aF2.13100004196167
aF1.4639999866485596
aF2.3510000705718994
aF1.3880000114440918
aF2.0399999618530273
aF1.2890000343322754
aF1.8509999513626099
aF1.6150000095367432
aF1.5019999742507935
aF2.009999990463257
aF1.3200000524520874
aF2.0179998874664307
aF1.5019999742507935
aF2.184000015258789
aF1.3350000381469727
aF1.9190000295639038
aF1.6690000295639038
aF1.7059999704360962
aF1.8200000524520874
aF1.5169999599456787
aF2.4119999408721924
aF1.2740000486373901
aF2.071000099182129
aF1.2359999418258667
aF1.8580000400543213
aF1.4639999866485596
aF1.2510000467300415
aF2.0179998874664307
aF1.190999984741211
aF1.972000002861023
aF1.5089999437332153
aF1.7369999885559082
aF1.652999997138977
aF1.440999984741211
aF2.200000047683716
aF1.3350000381469727
aF2.0329999923706055
aF1.24399995803833
aF1.4789999723434448
aF2.1689999103546143
aF1.1979999542236328
aF2.0329999923706055
aF1.159999966621399
aF1.8279999494552612
aF1.402999997138977
aF2.1089999675750732
aF1.2130000591278076
aF1.8200000524520874
aF1.63100004196167
aF1.1979999542236328
aF1.88100004196167
aF1.1829999685287476
aF1.812999963760376
aF1.3350000381469727
aF1.9420000314712524
aF1.2289999723434448
aF1.7369999885559082
aF1.6690000295639038
aF1.2359999418258667
aF2.0929999351501465
aF1.2059999704360962
aF1.8960000276565552
aF1.4179999828338623
aF1.4490000009536743
aF1.9040000438690186
aF1.1449999809265137
aF1.8200000524520874
aF1.3949999809265137
aF1.4639999866485596
aF1.8660000562667847
aF1.159999966621399
aF1.8049999475479126
aF1.3949999809265137
aF1.4490000009536743
aF1.88100004196167
aF1.1449999809265137
aF1.812999963760376
aF1.3730000257492065
aF1.4329999685287476
aF1.8660000562667847
aF1.1069999933242798
aF1.7599999904632568
aF1.4639999866485596
aF1.1979999542236328
aF1.8960000276565552
aF1.152999997138977
aF1.562000036239624
aF1.7979999780654907
aF1.100000023841858
aF1.8730000257492065
aF1.152999997138977
aF1.3420000076293945
aF2.1459999084472656
aF1.2209999561309814
aF1.9420000314712524
aF1.190999984741211
aF1.3569999933242798
aF2.184000015258789
aF1.2209999561309814
aF1.8580000400543213
aF1.1749999523162842
aF1.312000036239624
aF1.8350000381469727
aF1.3270000219345093
aF1.8350000381469727
aF1.190999984741211
aF1.2890000343322754
aF1.8960000276565552
aF1.3569999933242798
aF1.684000015258789
aF1.4259999990463257
aF1.190999984741211
aF1.6759999990463257
aF1.3350000381469727
aF1.4490000009536743
aF1.8350000381469727
aF1.121999979019165
aF1.7369999885559082
aF1.3880000114440918
aF1.2130000591278076
aF1.9190000295639038
aF1.1369999647140503
aF1.5549999475479126
aF1.8200000524520874
aF1.121999979019165
aF1.8660000562667847
aF1.0839999914169312
aF1.2059999704360962
aF1.8350000381469727
aF1.2740000486373901
aF1.4859999418258667
aF1.6380000114440918
aF1.031000018119812
aF1.6990000009536743
aF1.3799999952316284
aF1.2059999704360962
aF1.9570000171661377
aF1.190999984741211
aF1.5850000381469727
aF1.7289999723434448
aF1.0540000200271606
aF1.8350000381469727
aF1.1679999828338623
aF1.350000023841858
aF2.0859999656677246
aF1.2359999418258667
aF1.5850000381469727
aF1.4329999685287476
aF1.1679999828338623
aF1.7899999618530273
aF1.440999984741211
aF1.5470000505447388
aF1.7139999866485596
aF1.0770000219345093
aF1.690999984741211
aF1.350000023841858
aF1.4329999685287476
aF1.9570000171661377
aF1.1829999685287476
aF1.774999976158142
aF1.3949999809265137
aF1.3270000219345093
aF1.8960000276565552
aF1.190999984741211
aF1.8350000381469727
aF1.440999984741211
aF1.3799999952316284
aF1.934000015258789
aF1.1749999523162842
aF1.74399995803833
aF1.3799999952316284
aF1.350000023841858
aF1.9570000171661377
aF1.1679999828338623
aF1.8279999494552612
aF1.4490000009536743
aF1.4859999418258667
aF1.9040000438690186
aF1.1979999542236328
aF1.8730000257492065
aF1.440999984741211
aF1.7599999904632568
aF1.5089999437332153
aF1.4179999828338623
aF1.9639999866485596
aF1.3730000257492065
aF1.9639999866485596
aF1.2740000486373901
aF1.4490000009536743
aF2.2750000953674316
aF1.2359999418258667
aF2.1089999675750732
aF1.24399995803833
aF1.781999945640564
aF1.5240000486373901
aF1.2059999704360962
aF2.062999963760376
aF1.2589999437332153
aF1.9869999885559082
aF1.5169999599456787
aF1.6990000009536743
aF1.6460000276565552
aF1.2970000505447388
aF1.9639999866485596
aF1.49399995803833
aF2.0250000953674316
aF1.2890000343322754
aF1.5169999599456787
aF2.1619999408721924
aF1.2209999561309814
aF2.124000072479248
aF1.159999966621399
aF1.88100004196167
aF1.593000054359436
aF2.1689999103546143
aF1.3420000076293945
aF1.531999945640564
aF2.062999963760376
aF1.2130000591278076
aF2.1459999084472656
aF1.3200000524520874
aF2.115999937057495
aF1.2660000324249268
aF2.0859999656677246
aF1.190999984741211
aF1.8730000257492065
aF1.4559999704360962
aF2.13100004196167
aF1.3270000219345093
aF1.7599999904632568
aF1.7369999885559082
aF1.2359999418258667
aF2.071000099182129
aF1.3949999809265137
aF2.4119999408721924
aF1.350000023841858
aF2.2070000171661377
aF1.2359999418258667
aF1.8580000400543213
aF1.5549999475479126
aF2.2219998836517334
aF1.350000023841858
aF1.9420000314712524
aF1.6230000257492065
aF1.600000023841858
aF1.9490000009536743
aF1.3420000076293945
aF2.1010000705718994
aF1.49399995803833
aF2.2219998836517334
aF1.3200000524520874
aF1.8350000381469727
aF1.600000023841858
aF1.2970000505447388
aF2.1089999675750732
aF1.2660000324249268
aF2.002000093460083
aF1.562000036239624
aF2.1010000705718994
aF1.3350000381469727
aF1.8350000381469727
aF1.843000054359436
aF1.402999997138977
aF2.1689999103546143
aF1.3350000381469727
aF2.1619999408721924
aF1.4859999418258667
aF2.115999937057495
aF1.2660000324249268
aF1.684000015258789
aF1.8660000562667847
aF1.3040000200271606
aF2.253000020980835
aF1.3730000257492065
aF2.1540000438690186
aF1.4639999866485596
aF2.055000066757202
aF1.2890000343322754
aF1.6690000295639038
aF1.8660000562667847
aF1.402999997138977
aF2.0929999351501465
aF1.2740000486373901
aF2.055000066757202
aF1.531999945640564
aF2.0929999351501465
aF1.3270000219345093
aF1.722000002861023
aF1.812999963760376
aF1.3350000381469727
aF2.0929999351501465
aF1.2359999418258667
aF1.934000015258789
aF1.49399995803833
aF1.722000002861023
aF1.5470000505447388
aF1.4259999990463257
aF2.2149999141693115
aF1.3730000257492065
aF2.1089999675750732
aF1.2740000486373901
aF2.0250000953674316
aF1.5700000524520874
aF1.934000015258789
aF1.3880000114440918
aF1.4110000133514404
aF2.2219998836517334
aF1.281999945640564
aF2.062999963760376
aF1.2740000486373901
aF1.774999976158142
aF1.5169999599456787
aF1.7979999780654907
aF1.4559999704360962
aF1.4789999723434448
aF2.321000099182129
aF1.2660000324249268
aF2.062999963760376
aF1.2130000591278076
aF1.5549999475479126
aF1.4259999990463257
aF1.3880000114440918
aF2.0329999923706055
aF1.1829999685287476
aF1.8509999513626099
aF1.4259999990463257
aF1.5399999618530273
aF1.8730000257492065
aF1.2209999561309814
aF1.8890000581741333
aF1.4329999685287476
aF1.8580000400543213
aF1.1979999542236328
aF1.3569999933242798
aF2.2219998836517334
aF1.1749999523162842
aF1.9190000295639038
aF1.190999984741211
aF1.3200000524520874
aF2.1389999389648438
aF1.2660000324249268
aF1.88100004196167
aF1.1829999685287476
aF1.652999997138977
aF1.8049999475479126
aF1.1979999542236328
aF2.055000066757202
aF1.2359999418258667
aF1.8730000257492065
aF1.4859999418258667
aF1.4490000009536743
aF1.9950000047683716
aF1.152999997138977
aF1.8200000524520874
aF1.4110000133514404
aF1.5399999618530273
aF1.8200000524520874
aF1.4259999990463257
aF2.312999963760376
aF1.281999945640564
aF1.9639999866485596
aF1.152999997138977
aF1.3270000219345093
aF2.1540000438690186
aF1.152999997138977
aF2.009999990463257
aF1.2059999704360962
aF1.6460000276565552
aF1.7289999723434448
aF1.159999966621399
aF1.9570000171661377
aF1.1979999542236328
aF1.6690000295639038
aF1.7669999599456787
aF1.1749999523162842
aF2.0250000953674316
aF1.2510000467300415
aF1.8960000276565552
aF1.5089999437332153
aF1.5169999599456787
aF1.9800000190734863
aF1.2359999418258667
aF1.8200000524520874
aF1.3730000257492065
aF1.5700000524520874
aF1.2289999723434448
aF1.3350000381469727
aF2.1389999389648438
aF1.2970000505447388
aF1.9190000295639038
aF1.2059999704360962
aF1.350000023841858
aF2.244999885559082
aF1.2970000505447388
aF2.009999990463257
aF1.1979999542236328
aF1.3880000114440918
aF1.5240000486373901
aF1.24399995803833
aF1.843000054359436
aF1.5240000486373901
aF2.002000093460083
aF1.531999945640564
aF1.8730000257492065
aF1.281999945640564
aF1.9950000047683716
aF1.2510000467300415
aF2.0179998874664307
aF1.2059999704360962
aF2.055000066757202
aF1.593000054359436
aF2.0179998874664307
aF1.2059999704360962
aF1.9040000438690186
aF1.690999984741211
aF2.078000068664551
aF1.350000023841858
aF1.4789999723434448
aF2.321000099182129
aF1.4789999723434448
aF1.74399995803833
aF1.5850000381469727
aF2.3889999389648438
aF1.3200000524520874
aF2.305999994277954
aF1.3350000381469727
aF2.009999990463257
aF1.5019999742507935
aF2.0929999351501465
aF1.4110000133514404
aF2.1540000438690186
aF1.684000015258789
aF2.253000020980835
aF1.3949999809265137
aF2.0399999618530273
aF1.6460000276565552
aF2.078000068664551
aF1.4490000009536743
aF1.9490000009536743
aF1.6759999990463257
aF1.4259999990463257
aF2.2300000190734863
aF1.6150000095367432
aF2.677999973297119
aF1.4259999990463257
aF2.2980000972747803
aF1.4259999990463257
aF2.3970000743865967
aF1.6150000095367432
aF2.1459999084472656
aF1.972000002861023
aF1.7289999723434448
aF1.8350000381469727
aF1.7669999599456787
aF1.9190000295639038
aF1.8350000381469727
aF2.450000047683716
aF1.6230000257492065
aF2.2909998893737793
aF1.8350000381469727
aF2.677999973297119
aF1.5549999475479126
aF2.3359999656677246
aF1.6230000257492065
aF2.7839999198913574
aF1.7899999618530273
aF2.693000078201294
aF1.9639999866485596
aF1.5019999742507935
aF2.1689999103546143
aF1.7289999723434448
aF3.056999921798706
aF1.8049999475479126
aF1.88100004196167
aF1.6610000133514404
aF1.9950000047683716
aF2.1089999675750732
aF1.9190000295639038
aF2.7690000534057617
aF1.7059999704360962
aF2.7760000228881836
aF1.4709999561309814
aF2.510999917984009
aF1.9259999990463257
aF2.4579999446868896
aF2.3589999675750732
aF1.5169999599456787
aF2.5260000228881836
aF1.690999984741211
aF2.6019999980926514
aF2.0399999618530273
aF2.0250000953674316
aF2.571000099182129
aF1.5240000486373901
aF2.374000072479248
aF1.9800000190734863
aF3.0869998931884766
aF2.4200000762939453
aF1.7669999599456787
aF2.450000047683716
aF1.684000015258789
aF2.7690000534057617
aF1.6460000276565552
aF2.450000047683716
aF2.115999937057495
aF1.8730000257492065
aF2.4649999141693115
aF1.652999997138977
aF2.890000104904175
aF1.7669999599456787
aF1.6150000095367432
aF2.4200000762939453
aF1.9639999866485596
aF3.0190000534057617
aF1.9639999866485596
aF2.441999912261963
aF2.2070000171661377
aF1.690999984741211
aF3.063999891281128
aF1.8279999494552612
aF2.002000093460083
aF2.4730000495910645
aF1.9800000190734863
aF2.760999917984009
aF1.684000015258789
aF3.246999979019165
aF2.1389999389648438
aF1.7599999904632568
aF2.4200000762939453
aF1.9259999990463257
aF2.7760000228881836
aF2.3440001010894775
aF1.9490000009536743
aF2.677999973297119
aF1.6610000133514404
aF3.003999948501587
aF1.8890000581741333
aF1.9110000133514404
aF2.555999994277954
aF1.7059999704360962
aF2.7309999465942383
aF2.078000068664551
aF1.9869999885559082
aF2.7079999446868896
aF1.690999984741211
aF2.875
aF1.7139999866485596
aF2.23799991607666
aF2.4730000495910645
aF1.9800000190734863
aF2.684999942779541
aF1.6460000276565552
aF3.253999948501587
aF2.177000045776367
aF1.722000002861023
aF2.5409998893737793
aF1.7979999780654907
aF2.859999895095825
aF1.9259999990463257
aF2.693000078201294
aF2.4200000762939453
aF1.6690000295639038
aF3.2309999465942383
aF2.0399999618530273
aF1.74399995803833
aF2.640000104904175
aF1.9259999990463257
aF2.8980000019073486
aF1.9259999990463257
aF2.571000099182129
aF2.4119999408721924
aF1.6380000114440918
aF3.0950000286102295
aF1.8960000276565552
aF1.9040000438690186
aF2.6549999713897705
aF1.6759999990463257
aF1.7979999780654907
aF2.890000104904175
aF1.6080000400543213
aF2.365999937057495
aF2.624000072479248
aF1.9639999866485596
aF2.191999912261963
aF2.2300000190734863
aF1.812999963760376
aF2.7760000228881836
aF2.427000045776367
aF1.9110000133514404
aF2.7760000228881836
aF1.9420000314712524
aF2.1619999408721924
aF2.6619999408721924
aF1.690999984741211
aF2.8369998931884766
aF1.600000023841858
aF1.7139999866485596
aF2.321000099182129
aF1.9570000171661377
aF2.693000078201294
aF1.74399995803833
aF2.881999969482422
aF1.7059999704360962
aF2.055000066757202
aF1.9950000047683716
aF1.9420000314712524
aF2.571000099182129
aF1.6230000257492065
aF2.4730000495910645
aF1.6759999990463257
aF2.6549999713897705
aF1.6230000257492065
aF2.9730000495910645
aF1.6690000295639038
aF2.115999937057495
aF1.8200000524520874
aF2.071000099182129
aF2.062999963760376
aF1.6230000257492065
aF2.503000020980835
aF1.6690000295639038
aF2.5869998931884766
aF1.6150000095367432
aF2.7990000247955322
aF1.4709999561309814
aF2.374000072479248
aF1.5399999618530273
aF2.617000102996826
aF1.3730000257492065
aF2.381999969482422
aF1.4110000133514404
aF2.3970000743865967
aF1.5169999599456787
aF2.563999891281128
aF1.5399999618530273
aF2.8369998931884766
aF1.9950000047683716
aF1.6380000114440918
aF2.1619999408721924
aF1.7519999742507935
aF2.2070000171661377
aF1.4259999990463257
aF2.1389999389648438
aF1.6690000295639038
aF2.0929999351501465
aF1.350000023841858
aF1.6759999990463257
aF1.8509999513626099
aF1.74399995803833
aF1.4559999704360962
aF2.2300000190734863
aF1.6990000009536743
aF2.1540000438690186
aF1.3799999952316284
aF1.9110000133514404
aF1.7139999866485596
aF1.8730000257492065
aF1.652999997138977
aF1.774999976158142
aF1.9869999885559082
aF2.253000020980835
aF1.4259999990463257
aF2.177000045776367
aF1.7139999866485596
aF2.1619999408721924
aF1.3799999952316284
aF1.9040000438690186
aF1.6460000276565552
aF1.6610000133514404
aF1.350000023841858
aF1.6380000114440918
aF2.062999963760376
aF1.312000036239624
aF2.2070000171661377
aF1.3200000524520874
aF2.1619999408721924
aF1.5240000486373901
aF2.2750000953674316
aF1.350000023841858
aF2.062999963760376
aF1.6080000400543213
aF1.781999945640564
aF1.531999945640564
aF1.63100004196167
aF2.244999885559082
aF1.9190000295639038
aF1.4859999418258667
aF1.781999945640564
aF1.88100004196167
aF1.684000015258789
aF1.8730000257492065
aF1.5399999618530273
aF2.441999912261963
aF1.3040000200271606
aF2.2219998836517334
aF1.3569999933242798
aF2.1010000705718994
aF1.593000054359436
aF2.002000093460083
aF1.3880000114440918
aF1.6080000400543213
aF2.0859999656677246
aF1.2209999561309814
aF2.0480000972747803
aF1.2130000591278076
aF1.684000015258789
aF1.3730000257492065
aF1.5169999599456787
aF1.8960000276565552
aF1.2890000343322754
aF2.0480000972747803
aF1.531999945640564
aF2.2300000190734863
aF1.312000036239624
aF1.8279999494552612
aF1.684000015258789
aF1.5549999475479126
aF2.062999963760376
aF1.5089999437332153
aF2.5329999923706055
aF1.3949999809265137
aF2.4200000762939453
aF1.4259999990463257
aF2.312999963760376
aF1.4859999418258667
aF2.2750000953674316
aF1.2890000343322754
aF1.7979999780654907
aF1.5240000486373901
aF1.3270000219345093
aF2.062999963760376
aF1.2359999418258667
aF1.972000002861023
aF1.4179999828338623
aF2.23799991607666
aF1.350000023841858
aF1.9869999885559082
aF1.5089999437332153
aF1.6380000114440918
aF1.8509999513626099
aF1.6080000400543213
aF2.746000051498413
aF1.4789999723434448
aF1.8730000257492065
aF1.069000005722046
aF1.6610000133514404
aF1.7369999885559082
aF1.5549999475479126
aF2.1089999675750732
aF1.7669999599456787
aF1.774999976158142
aF1.4110000133514404
aF2.002000093460083
aF1.5169999599456787
aF2.503000020980835
aF1.6990000009536743
aF1.9040000438690186
aF1.3949999809265137
aF2.13100004196167
aF1.24399995803833
aF1.9420000314712524
aF1.531999945640564
aF2.0399999618530273
aF1.5399999618530273
aF1.4709999561309814
aF2.0179998874664307
aF1.7139999866485596
aF2.0859999656677246
aF1.4559999704360962
aF2.0480000972747803
aF1.6610000133514404
aF2.693000078201294
aF1.562000036239624
aF2.1010000705718994
aF1.5169999599456787
aF2.381999969482422
aF1.49399995803833
aF2.115999937057495
aF1.843000054359436
aF2.6700000762939453
aF1.5549999475479126
aF2.4800000190734863
aF1.5399999618530273
aF2.3589999675750732
aF1.3799999952316284
aF2.4119999408721924
aF1.6380000114440918
aF2.5490000247955322
aF1.6380000114440918
aF2.7690000534057617
aF1.6150000095367432
aF1.4639999866485596
aF2.2219998836517334
aF1.722000002861023
aF2.2219998836517334
aF1.5470000505447388
aF2.4040000438690186
aF1.7979999780654907
aF2.617000102996826
aF1.6230000257492065
aF2.6549999713897705
aF1.3799999952316284
aF2.2980000972747803
aF1.8960000276565552
aF2.3440001010894775
aF2.3889999389648438
aF1.6380000114440918
aF2.4730000495910645
aF1.6150000095367432
aF2.381999969482422
aF1.684000015258789
aF2.867000102996826
aF1.6690000295639038
aF2.365999937057495
aF1.9639999866485596
aF1.8890000581741333
aF2.0329999923706055
aF1.6230000257492065
aF2.927999973297119
aF1.690999984741211
aF2.2070000171661377
aF1.812999963760376
aF2.3289999961853027
aF2.510999917984009
aF1.652999997138977
aF2.5409998893737793
aF1.7979999780654907
aF2.0329999923706055
aF2.0250000953674316
aF1.8660000562667847
aF2.7909998893737793
aF1.722000002861023
aF2.7760000228881836
aF1.562000036239624
aF2.5260000228881836
aF2.0250000953674316
aF2.0179998874664307
aF2.631999969482422
aF1.6990000009536743
aF2.8440001010894775
aF2.055000066757202
aF1.7059999704360962
aF2.5409998893737793
aF1.9950000047683716
aF2.867000102996826
aF1.781999945640564
aF2.8980000019073486
aF2.2300000190734863
aF1.6759999990463257
aF2.8369998931884766
aF1.7369999885559082
aF2.200000047683716
aF2.3889999389648438
aF1.9570000171661377
aF2.806999921798706
aF1.8350000381469727
aF3.2309999465942383
aF2.2300000190734863
aF1.7369999885559082
aF2.8369998931884766
aF1.531999945640564
aF2.640000104904175
aF2.0329999923706055
aF2.124000072479248
aF2.927999973297119
aF1.690999984741211
aF3.0950000286102295
aF1.9639999866485596
aF1.843000054359436
aF2.6089999675750732
aF1.5549999475479126
aF2.6019999980926514
aF2.1540000438690186
aF2.071000099182129
aF2.9200000762939453
aF1.6690000295639038
aF3.0420000553131104
aF1.774999976158142
aF2.0250000953674316
aF2.753000020980835
aF2.071000099182129
aF2.8519999980926514
aF1.7599999904632568
aF1.9800000190734863
aF3.0339999198913574
aF1.8730000257492065
aF2.927999973297119
aF2.0250000953674316
aF1.722000002861023
aF2.7230000495910645
aF2.0929999351501465
aF1.88100004196167
aF2.2300000190734863
aF1.9190000295639038
aF3.0869998931884766
aF1.972000002861023
aF2.624000072479248
aF2.191999912261963
aF1.5850000381469727
aF2.753000020980835
aF1.9259999990463257
aF2.7309999465942383
aF2.115999937057495
aF1.9420000314712524
aF2.8440001010894775
aF1.7599999904632568
aF3.2839999198913574
aF2.071000099182129
aF1.7369999885559082
aF2.563999891281128
aF1.9800000190734863
aF2.927999973297119
aF1.9869999885559082
aF2.5409998893737793
aF2.5179998874664307
aF1.6690000295639038
aF3.186000108718872
aF2.1010000705718994
aF1.7289999723434448
aF2.6549999713897705
aF1.8730000257492065
aF2.9200000762939453
aF2.009999990463257
aF2.2980000972747803
aF2.5940001010894775
aF1.6460000276565552
aF3.1480000019073486
aF2.124000072479248
aF1.7369999885559082
aF2.890000104904175
aF2.2149999141693115
aF1.6990000009536743
aF3.1630001068115234
aF1.8660000562667847
aF1.6460000276565552
aF2.6019999980926514
aF1.812999963760376
aF1.9869999885559082
aF2.3589999675750732
aF1.74399995803833
aF1.934000015258789
aF2.5789999961853027
aF2.002000093460083
aF2.859999895095825
aF1.690999984741211
aF3.0339999198913574
aF2.002000093460083
aF1.8200000524520874
aF2.2149999141693115
aF1.7899999618530273
aF2.822000026702881
aF1.8350000381469727
aF2.746000051498413
aF2.191999912261963
aF1.6380000114440918
aF2.631999969482422
aF1.8730000257492065
aF2.7309999465942383
aF1.684000015258789
aF2.943000078201294
aF1.684000015258789
aF2.0929999351501465
aF1.6990000009536743
aF1.6690000295639038
aF1.9190000295639038
aF1.4789999723434448
aF1.6380000114440918
aF2.1010000705718994
aF1.5089999437332153
aF2.2149999141693115
aF1.3650000095367432
aF2.374000072479248
aF1.531999945640564
aF2.73799991607666
aF1.7979999780654907
aF2.693000078201294
aF1.88100004196167
aF1.7669999599456787
aF1.8730000257492065
aF1.8660000562667847
aF2.002000093460083
aF1.5169999599456787
aF2.244999885559082
aF1.7369999885559082
aF2.5490000247955322
aF1.5700000524520874
aF2.3889999389648438
aF1.6759999990463257
aF2.5260000228881836
aF1.4490000009536743
aF2.244999885559082
aF1.6380000114440918
aF2.563999891281128
aF1.5700000524520874
aF2.693000078201294
aF1.4490000009536743
aF2.427000045776367
aF1.5169999599456787
aF2.700000047683716
aF1.3949999809265137
aF2.441999912261963
aF1.5169999599456787
aF2.2219998836517334
aF1.562000036239624
aF2.1459999084472656
aF1.6150000095367432
aF2.6470000743865967
aF1.3880000114440918
aF2.2829999923706055
aF1.3350000381469727
aF2.503000020980835
aF1.4859999418258667
aF2.441999912261963
aF1.4259999990463257
aF2.200000047683716
aF1.6610000133514404
aF2.441999912261963
aF1.4639999866485596
aF2.450000047683716
aF1.440999984741211
aF2.3440001010894775
aF1.350000023841858
aF2.1010000705718994
aF1.6150000095367432
aF2.177000045776367
aF1.3270000219345093
aF1.8049999475479126
aF1.690999984741211
aF1.812999963760376
aF1.4329999685287476
aF1.4709999561309814
aF2.4119999408721924
aF1.312000036239624
aF2.321000099182129
aF1.3420000076293945
aF2.0859999656677246
aF1.600000023841858
aF2.1089999675750732
aF1.3200000524520874
aF1.7369999885559082
aF1.5770000219345093
aF1.88100004196167
aF1.3949999809265137
aF1.5019999742507935
aF2.374000072479248
aF1.24399995803833
aF2.1689999103546143
aF1.2970000505447388
aF1.9800000190734863
aF1.49399995803833
aF1.5399999618530273
aF1.843000054359436
aF1.1749999523162842
aF1.8200000524520874
aF1.5399999618530273
aF1.690999984741211
aF1.5470000505447388
aF1.4259999990463257
aF2.2149999141693115
aF1.2130000591278076
aF2.1619999408721924
aF1.281999945640564
aF1.9570000171661377
aF1.4639999866485596
aF1.652999997138977
aF1.7899999618530273
aF1.3880000114440918
aF2.1010000705718994
aF1.4259999990463257
aF2.1389999389648438
aF1.3650000095367432
aF1.9639999866485596
aF1.690999984741211
aF1.812999963760376
aF1.6690000295639038
aF1.6150000095367432
aF2.365999937057495
aF1.2970000505447388
aF2.13100004196167
aF1.24399995803833
aF1.9190000295639038
aF1.4259999990463257
aF1.5169999599456787
aF1.8350000381469727
aF1.1679999828338623
aF2.1459999084472656
aF1.440999984741211
aF1.9869999885559082
aF1.2130000591278076
aF1.3200000524520874
aF2.071000099182129
aF1.2740000486373901
aF1.6380000114440918
aF1.3880000114440918
aF1.159999966621399
aF1.6990000009536743
aF1.350000023841858
aF1.3880000114440918
aF1.7979999780654907
aF1.062000036239624
aF1.5089999437332153
aF1.7289999723434448
aF1.0839999914169312
aF1.8350000381469727
aF1.0920000076293945
aF1.5850000381469727
aF1.281999945640564
aF1.069000005722046
aF1.7519999742507935
aF1.069000005722046
aF1.6759999990463257
aF1.600000023841858
aF1.562000036239624
aF1.9490000009536743
aF1.8049999475479126
aF1.6759999990463257
aF2.071000099182129
aF1.281999945640564
aF1.6460000276565552
aF1.74399995803833
aF1.0390000343322754
aF1.7899999618530273
aF1.031000018119812
aF1.1829999685287476
aF1.8580000400543213
aF1.350000023841858
aF1.6990000009536743
aF1.4639999866485596
aF1.3730000257492065
aF1.972000002861023
aF1.281999945640564
aF1.24399995803833
aF1.3650000095367432
aF0.8489999771118164
aF0.9169999957084656
aF1.100000023841858
aF0.9399999976158142
aF0.7200000286102295
aF0.5989999771118164
aF1.190999984741211
aF1.5470000505447388
aF1.281999945640564
aF1.8279999494552612
aF1.2970000505447388
aF1.593000054359436
aF1.3799999952316284
aF0.9100000262260437
aF1.3650000095367432
aF1.1979999542236328
aF0.8870000243186951
aF1.4110000133514404
aF1.4559999704360962
aF0.925000011920929
aF1.2209999561309814
aF1.7369999885559082
aF1.031000018119812
aF1.031000018119812
aF1.3949999809265137
aF0.8190000057220459
aF0.8109999895095825
aF1.1449999809265137
aF1.4490000009536743
aF0.9020000100135803
aF0.7429999709129333
aF1.2890000343322754
aF1.2289999723434448
aF0.7879999876022339
aF0.8489999771118164
aF1.152999997138977
aF1.1299999952316284
aF0.7129999995231628
aF0.8259999752044678
aF1.1150000095367432
aF0.8799999952316284
aF0.6370000243186951
aF0.7049999833106995
aF0.9330000281333923
aF1.2289999723434448
aF0.6970000267028809
aF0.5839999914169312
aF0.7509999871253967
aF0.9710000157356262
aF0.9779999852180481
aF0.5680000185966492
aF0.5529999732971191
aF0.6819999814033508
aF0.871999979019165
aF1.0839999914169312
aF0.6600000262260437
aF0.5529999732971191
aF0.7580000162124634
aF0.9629999995231628
aF0.8870000243186951
aF0.5839999914169312
aF0.5989999771118164
aF0.7279999852180481
aF0.7879999876022339
aF0.9629999995231628
aF0.6140000224113464
aF0.5460000038146973
aF0.6140000224113464
aF0.8190000057220459
aF0.9169999957084656
aF0.6290000081062317
aF0.5
aF0.5379999876022339
aF0.6060000061988831
aF0.7129999995231628
aF0.925000011920929
aF0.5989999771118164
aF0.5609999895095825
aF0.4399999976158142
aF0.5680000185966492
aF0.7279999852180481
aF0.781000018119812
aF0.5460000038146973
aF0.4399999976158142
aF0.39399999380111694
aF0.4620000123977661
aF0.5379999876022339
aF0.5759999752044678
aF0.7429999709129333
aF0.5529999732971191
aF0.4399999976158142
aF0.38600000739097595
aF0.3709999918937683
aF0.42399999499320984
aF0.5
aF0.5910000205039978
aF0.5759999752044678
aF0.48500001430511475
aF0.32600000500679016
aF0.4320000112056732
aF0.4399999976158142
aF0.4320000112056732
aF0.5230000019073486
aF0.49300000071525574
aF0.6060000061988831
aF0.45500001311302185
aF0.32600000500679016
aF0.3330000042915344
aF0.2879999876022339
aF0.2879999876022339
aF0.3179999887943268
aF0.3109999895095825
aF0.36399999260902405
aF0.38600000739097595
aF0.35600000619888306
aF0.3479999899864197
aF0.3109999895095825
aF0.24199999868869781
aF0.18199999630451202
aF0.20399999618530273
aF0.16599999368190765
aF0.1509999930858612
aF0.16599999368190765
aF0.05299999937415123
aF0.22699999809265137
aF0.39399999380111694
aF0.5460000038146973
aF0.5460000038146973
aF0.5759999752044678
aF0.45500001311302185
aF0.3409999907016754
aF0.26499998569488525
aF0.25699999928474426
aF0.17399999499320984
aF0.1589999943971634
aF0.1509999930858612
aF0.09099999815225601
aF0.1509999930858612
aF0.18199999630451202
aF0.16599999368190765
aF0.12800000607967377
aF0.07500000298023224
aF-0.18199999630451202
aF-0.05999999865889549
aF0.0
aF0.0
aF0.0
aF-0.02199999988079071
aF-0.014999999664723873
aF-0.007000000216066837
aF0.0
aF0.0
aF0.0
aF0.0
aF-0.007000000216066837
aF-0.014999999664723873
aF-0.029999999329447746
aF-0.03700000047683716
aF-0.05299999937415123
aF-0.05299999937415123
aF-0.03700000047683716
aF-0.02199999988079071
aF-0.03700000047683716
aF-0.05999999865889549
aF-0.03700000047683716
aF-0.06800000369548798
aF-0.12099999934434891
aF-0.09799999743700027
aF-0.07500000298023224
aF-0.06800000369548798
aF-0.12099999934434891
aF-0.14399999380111694
aF-0.11299999803304672
aF-0.11299999803304672
aF-0.09799999743700027
aF-0.18199999630451202
aF-0.1889999955892563
aF-0.17399999499320984
aF-0.17399999499320984
aF-0.29499998688697815
aF-0.23499999940395355
aF-0.18199999630451202
aF-0.13600000739097595
aF-0.30300000309944153
aF-0.2199999988079071
aF-0.17399999499320984
aF-0.22699999809265137
aF-0.1589999943971634
aF-0.13600000739097595
aF-0.1509999930858612
aF-0.17399999499320984
aF-0.12800000607967377
aF-0.14399999380111694
aF-0.1889999955892563
aF-0.1509999930858612
aF-0.12099999934434891
aF-0.23499999940395355
aF-0.20399999618530273
aF-0.22699999809265137
aF-0.30300000309944153
aF-0.26499998569488525
aF-0.20399999618530273
aF-0.3479999899864197
aF-0.25
aF-0.20399999618530273
aF-0.25
aF-0.17399999499320984
aF-0.13600000739097595
aF-0.20399999618530273
aF-0.14399999380111694
aF-0.16599999368190765
aF-0.25
aF-0.1889999955892563
aF-0.20399999618530273
aF-0.27300000190734863
aF-0.24199999868869781
aF-0.3790000081062317
aF-0.27300000190734863
aF-0.19699999690055847
aF-0.35600000619888306
aF-0.27300000190734863
aF-0.19699999690055847
aF-0.25699999928474426
aF-0.17399999499320984
aF-0.1509999930858612
aF-0.2199999988079071
aF-0.14399999380111694
aF-0.13600000739097595
aF-0.20399999618530273
aF-0.14399999380111694
aF-0.19699999690055847
aF-0.22699999809265137
aF-0.2199999988079071
aF-0.3409999907016754
aF-0.29499998688697815
aF-0.20399999618530273
aF-0.3479999899864197
aF-0.26499998569488525
aF-0.19699999690055847
aF-0.24199999868869781
aF-0.17399999499320984
aF-0.14399999380111694
aF-0.18199999630451202
aF-0.14399999380111694
aF-0.20399999618530273
aF-0.24199999868869781
aF-0.1589999943971634
aF-0.24199999868869781
aF-0.22699999809265137
aF-0.23499999940395355
aF-0.35600000619888306
aF-0.24199999868869781
aF-0.18199999630451202
aF-0.3479999899864197
aF-0.2800000011920929
aF-0.2199999988079071
aF-0.24199999868869781
aF-0.16599999368190765
aF-0.25
aF-0.20399999618530273
aF-0.14399999380111694
aF-0.2199999988079071
aF-0.16599999368190765
aF-0.26499998569488525
aF-0.26499998569488525
aF-0.25699999928474426
aF-0.20399999618530273
aF-0.19699999690055847
aF-0.09099999815225601
aF0.02199999988079071
aF0.12800000607967377
aF0.13600000739097595
aF0.10599999874830246
aF0.07500000298023224
aF0.0
aF-0.05999999865889549
aF-0.09799999743700027
aF-0.10599999874830246
aF-0.11299999803304672
aF-0.12099999934434891
aF-0.03700000047683716
aF0.0
aF0.0
aF-0.06800000369548798
aF-0.21199999749660492
aF-0.39399999380111694
aF-0.32600000500679016
aF-0.2879999876022339
aF-0.22699999809265137
aF-0.17399999499320984
aF-0.16599999368190765
aF-0.11299999803304672
aF-0.10599999874830246
aF-0.16599999368190765
aF0.2800000011920929
aF0.24199999868869781
aF0.11299999803304672
aF0.02199999988079071
aF0.02199999988079071
aF0.007000000216066837
aF0.04500000178813934
aF0.07500000298023224
aF0.05999999865889549
aF0.05299999937415123
aF0.05299999937415123
aF0.04500000178813934
aF0.05999999865889549
aF0.02199999988079071
aF0.07500000298023224
aF0.07500000298023224
aF0.09799999743700027
aF0.11299999803304672
aF0.09099999815225601
aF0.12800000607967377
aF0.1509999930858612
aF0.12099999934434891
aF0.1509999930858612
aF0.21199999749660492
aF0.12099999934434891
aF0.1889999955892563
aF0.16599999368190765
aF0.2199999988079071
aF0.13600000739097595
aF0.10599999874830246
aF0.12099999934434891
aF0.1509999930858612
aF0.12800000607967377
aF0.09799999743700027
aF0.16599999368190765
aF0.17399999499320984
aF0.14399999380111694
aF0.18199999630451202
aF0.20399999618530273
aF0.1889999955892563
aF0.27300000190734863
aF0.19699999690055847
aF0.16599999368190765
aF0.2800000011920929
aF0.25699999928474426
aF0.26499998569488525
aF0.2879999876022339
aF0.25
aF0.1589999943971634
aF0.18199999630451202
aF0.20399999618530273
aF0.19699999690055847
aF0.19699999690055847
aF0.17399999499320984
aF0.13600000739097595
aF0.20399999618530273
aF0.19699999690055847
aF0.1889999955892563
aF0.29499998688697815
aF0.26499998569488525
aF0.2199999988079071
aF0.3479999899864197
aF0.25699999928474426
aF0.22699999809265137
aF0.25
aF0.1889999955892563
aF0.12099999934434891
aF0.16599999368190765
aF0.1509999930858612
aF0.12099999934434891
aF0.18199999630451202
aF0.20399999618530273
aF0.1509999930858612
aF0.2199999988079071
aF0.2199999988079071
aF0.18199999630451202
aF0.25
aF0.19699999690055847
aF0.19699999690055847
aF0.3109999895095825
aF0.30300000309944153
aF0.23499999940395355
aF0.2800000011920929
aF0.21199999749660492
aF0.16599999368190765
aF0.19699999690055847
aF0.17399999499320984
aF0.13600000739097595
aF0.18199999630451202
aF0.16599999368190765
aF0.11299999803304672
aF0.19699999690055847
aF0.1509999930858612
aF0.05299999937415123
aF-0.02199999988079071
aF-0.09099999815225601
aF-0.08299999684095383
aF-0.05999999865889549
aF-0.05299999937415123
aF-0.007000000216066837
aF0.007000000216066837
aF0.04500000178813934
aF0.03700000047683716
aF0.03700000047683716
aF0.029999999329447746
aF0.05999999865889549
aF0.03700000047683716
aF0.014999999664723873
aF0.0
aF-0.007000000216066837
aF0.0
aF0.03700000047683716
aF0.07500000298023224
aF0.14399999380111694
aF0.30300000309944153
aF0.29499998688697815
aF0.19699999690055847
aF-0.12800000607967377
aF-0.16599999368190765
aF-0.1589999943971634
aF-0.06800000369548798
aF-0.08299999684095383
aF-0.07500000298023224
aF-0.05999999865889549
aF-0.03700000047683716
aF-0.04500000178813934
aF-0.029999999329447746
aF-0.03700000047683716
aF-0.05999999865889549
aF-0.04500000178813934
aF-0.014999999664723873
aF-0.05999999865889549
aF-0.05999999865889549
aF-0.05999999865889549
aF-0.07500000298023224
aF-0.07500000298023224
aF-0.05999999865889549
aF-0.08299999684095383
aF-0.05999999865889549
aF-0.12800000607967377
aF-0.08299999684095383
aF-0.09799999743700027
aF-0.09799999743700027
aF-0.10599999874830246
aF-0.17399999499320984
aF-0.14399999380111694
aF-0.11299999803304672
aF-0.09799999743700027
aF-0.19699999690055847
aF-0.1889999955892563
aF-0.18199999630451202
aF-0.20399999618530273
aF-0.32600000500679016
aF-0.23499999940395355
aF-0.14399999380111694
aF-0.22699999809265137
aF-0.25
aF-0.19699999690055847
aF-0.16599999368190765
aF-0.22699999809265137
aF-0.16599999368190765
aF-0.11299999803304672
aF-0.18199999630451202
aF-0.16599999368190765
aF-0.12099999934434891
aF-0.1509999930858612
aF-0.1889999955892563
aF-0.05999999865889549
aF0.0
aF0.02199999988079071
aF0.007000000216066837
aF0.014999999664723873
aF0.007000000216066837
aF0.0
aF-0.014999999664723873
aF-0.007000000216066837
aF-0.007000000216066837
aF0.0
aF0.0
aF0.0
aF-0.007000000216066837
aF0.0
aF-0.007000000216066837
aF-0.014999999664723873
aF-0.007000000216066837
aF-0.014999999664723873
aF-0.007000000216066837
aF-0.007000000216066837
aF-0.02199999988079071
aF-0.02199999988079071
aF-0.05999999865889549
aF-0.13600000739097595
aF-0.20399999618530273
aF-0.21199999749660492
aF-0.19699999690055847
aF-0.18199999630451202
aF-0.17399999499320984
aF-0.09799999743700027
aF-0.007000000216066837
aF0.0
aF-0.04500000178813934
aF-0.1509999930858612
aF-0.3179999887943268
aF-0.25699999928474426
aF-0.1509999930858612
aF-0.1509999930858612
aF-0.10599999874830246
aF-0.05999999865889549
aF0.0
aF0.029999999329447746
aF-0.007000000216066837
aF-0.04500000178813934
aF-0.05999999865889549
aF-0.08299999684095383
aF-0.14399999380111694
aF-0.12099999934434891
aF-0.05299999937415123
aF0.0
aF0.02199999988079071
aF0.0
aF-0.03700000047683716
aF-0.03700000047683716
aF-0.07500000298023224
aF-0.1509999930858612
aF-0.13600000739097595
aF-0.09799999743700027
aF-0.014999999664723873
aF0.05299999937415123
aF0.03700000047683716
aF0.0
aF-0.029999999329447746
aF-0.02199999988079071
aF-0.007000000216066837
aF0.0
aF0.0
aF0.0
aF-0.007000000216066837
asS'car_path'
p59
(lp60
(dp61
g6
F-4.642253978616669
sg7
F-4.642253978616669
sa(dp62
g6
F-4.642253978616669
sg7
F-4.642253978616669
sa(dp63
g6
F-4.642253978616669
sg7
F-4.642253978616669
sa(dp64
g6
F-4.642253978616669
sg7
F-4.642253978616669
sa(dp65
g6
F-4.642253978616669
sg7
F-4.642253978616669
sa(dp66
g6
F-4.642253978616669
sg7
F-4.642253978616669
sa(dp67
g6
F-4.642253978616669
sg7
F-4.642253978616669
sa(dp68
g6
F-4.642253978616669
sg7
F-4.642253978616669
sa(dp69
g6
F-4.642253978616669
sg7
F-4.642253978616669
sa(dp70
g6
F-4.642253978616669
sg7
F-4.642253978616669
sa(dp71
g6
F-4.642253978616669
sg7
F-4.642253978616669
sa(dp72
g6
F-4.642253978616669
sg7
F-4.642253978616669
sa(dp73
g6
F-4.642253978616669
sg7
F-4.642253978616669
sa(dp74
g6
F-4.642253978616669
sg7
F-4.642253978616669
sa(dp75
g6
F-4.642253978616669
sg7
F-4.642253978616669
sa(dp76
g6
F-4.642253978616669
sg7
F-4.642253978616669
sa(dp77
g6
F-4.642253978616669
sg7
F-4.642253978616669
sa(dp78
g6
F-4.642253978616669
sg7
F-4.642253978616669
sa(dp79
g6
F-4.642253978616669
sg7
F-4.642253978616669
sa(dp80
g6
F-4.642253978616669
sg7
F-4.642253978616669
sa(dp81
g6
F-4.642253978616669
sg7
F-4.642253978616669
sa(dp82
g6
F-4.642253978616669
sg7
F-4.642253978616669
sa(dp83
g6
F-4.642253978616669
sg7
F-4.642253978616669
sa(dp84
g6
F-4.642253978616669
sg7
F-4.642253978616669
sa(dp85
g6
F-4.642253978616669
sg7
F-4.642253978616669
sa(dp86
g6
F-4.642253978616669
sg7
F-4.642253978616669
sa(dp87
g6
F-4.642253978616669
sg7
F-4.642253978616669
sa(dp88
g6
F-4.642253978616669
sg7
F-4.642253978616669
sa(dp89
g6
F-4.642253978616669
sg7
F-4.642253978616669
sa(dp90
g6
F-4.642253978616669
sg7
F-4.642253978616669
sa(dp91
g6
F-4.642253978616669
sg7
F-4.642253978616669
sa(dp92
g6
F-4.642253978616669
sg7
F-4.642253978616669
sa(dp93
g6
F-4.642253978616669
sg7
F-4.642253978616669
sa(dp94
g6
F-4.642253978616669
sg7
F-4.642253978616669
sa(dp95
g6
F-4.642253978616669
sg7
F-4.642253978616669
sa(dp96
g6
F-4.642253978616669
sg7
F-4.642253978616669
sa(dp97
g6
F-4.642253978616669
sg7
F-4.642253978616669
sa(dp98
g6
F-4.642253978616669
sg7
F-4.642253978616669
sa(dp99
g6
F-4.642253978616669
sg7
F-4.642253978616669
sa(dp100
g6
F-4.642253978616669
sg7
F-4.642253978616669
sa(dp101
g6
F-4.642253978616669
sg7
F-4.642253978616669
sa(dp102
g6
F-4.642253978616669
sg7
F-4.642253978616669
sa(dp103
g6
F-4.642253978616669
sg7
F-4.642253978616669
sa(dp104
g6
F-4.642253978616669
sg7
F-4.642253978616669
sa(dp105
g6
F-4.642253978616669
sg7
F-4.642253978616669
sa(dp106
g6
F-4.642253978616669
sg7
F-4.642253978616669
sa(dp107
g6
F-4.642253978616669
sg7
F-4.642253978616669
sa(dp108
g6
F-4.642253978616669
sg7
F-4.642253978616669
sa(dp109
g6
F-4.642253978616669
sg7
F-4.642253978616669
sa(dp110
g6
F-4.642253978616669
sg7
F-4.642253978616669
sa(dp111
g6
F-4.642253978616669
sg7
F-4.642253978616669
sa(dp112
g6
F-4.642253978616669
sg7
F-4.642253978616669
sa(dp113
g6
F-4.642253978616669
sg7
F-4.642253978616669
sa(dp114
g6
F-4.642253978616669
sg7
F-4.642253978616669
sa(dp115
g6
F-4.642253978616669
sg7
F-4.642253978616669
sa(dp116
g6
F-4.642253978616669
sg7
F-4.642253978616669
sa(dp117
g6
F-4.642253978616669
sg7
F-4.642253978616669
sa(dp118
g6
F-4.642253978616669
sg7
F-4.642253978616669
sa(dp119
g6
F-4.642253978616669
sg7
F-4.642253978616669
sa(dp120
g6
F-4.642253978616669
sg7
F-4.642253978616669
sa(dp121
g6
F-4.642253978616669
sg7
F-4.642253978616669
sa(dp122
g6
F-4.642253978616669
sg7
F-4.642253978616669
sa(dp123
g6
F-4.642253978616669
sg7
F-4.642253978616669
sa(dp124
g6
F-4.642253978616669
sg7
F-4.642253978616669
sa(dp125
g6
F-4.642253978616669
sg7
F-4.642253978616669
sa(dp126
g6
F-4.642253978616669
sg7
F-4.642253978616669
sa(dp127
g6
F-4.642253978616669
sg7
F-4.642253978616669
sa(dp128
g6
F-4.642253978616669
sg7
F-4.642253978616669
sa(dp129
g6
F-4.642253978616669
sg7
F-4.642253978616669
sa(dp130
g6
F-4.642253978616669
sg7
F-4.642253978616669
sa(dp131
g6
F-4.642253978616669
sg7
F-4.642253978616669
sa(dp132
g6
F-4.642253978616669
sg7
F-4.642253978616669
sa(dp133
g6
F-4.642253978616669
sg7
F-4.642253978616669
sa(dp134
g6
F-4.642253978616669
sg7
F-4.642253978616669
sa(dp135
g6
F-4.642253978616669
sg7
F-4.642253978616669
sa(dp136
g6
F-4.642253978616669
sg7
F-4.642253978616669
sa(dp137
g6
F-4.642253978616669
sg7
F-4.642253978616669
sa(dp138
g6
F-4.642253978616669
sg7
F-4.642253978616669
sa(dp139
g6
F-4.642253978616669
sg7
F-4.642253978616669
sa(dp140
g6
F-4.642253978616669
sg7
F-4.642253978616669
sa(dp141
g6
F-4.642253978616669
sg7
F-4.642253978616669
sa(dp142
g6
F-4.642253978616669
sg7
F-4.642253978616669
sa(dp143
g6
F-4.642253978616669
sg7
F-4.642253978616669
sa(dp144
g6
F-4.642253978616669
sg7
F-4.642253978616669
sa(dp145
g6
F-4.642253978616669
sg7
F-4.642253978616669
sa(dp146
g6
F-4.642253978616669
sg7
F-4.642253978616669
sa(dp147
g6
F-4.642253978616669
sg7
F-4.642253978616669
sa(dp148
g6
F-4.642253978616669
sg7
F-4.642253978616669
sa(dp149
g6
F-4.642253978616669
sg7
F-4.642253978616669
sa(dp150
g6
F-4.642253978616669
sg7
F-4.642253978616669
sa(dp151
g6
F-4.642253978616669
sg7
F-4.642253978616669
sa(dp152
g6
F-4.642253978616669
sg7
F-4.642253978616669
sa(dp153
g6
F-4.642253978616669
sg7
F-4.642253978616669
sa(dp154
g6
F-4.642253978616669
sg7
F-4.642253978616669
sa(dp155
g6
F-4.642253978616669
sg7
F-4.642253978616669
sa(dp156
g6
F-4.642253978616669
sg7
F-4.642253978616669
sa(dp157
g6
F-4.642253978616669
sg7
F-4.642253978616669
sa(dp158
g6
F-4.642253978616669
sg7
F-4.642253978616669
sa(dp159
g6
F-4.642253978616669
sg7
F-4.642253978616669
sa(dp160
g6
F-4.642253978616669
sg7
F-4.642253978616669
sa(dp161
g6
F-4.642253978616669
sg7
F-4.642253978616669
sa(dp162
g6
F-4.642253978616669
sg7
F-4.642253978616669
sa(dp163
g6
F-4.642253978616669
sg7
F-4.642253978616669
sa(dp164
g6
F-4.642253978616669
sg7
F-4.642253978616669
sa(dp165
g6
F-4.642253978616669
sg7
F-4.642253978616669
sa(dp166
g6
F-4.642253978616669
sg7
F-4.642253978616669
sa(dp167
g6
F-4.642253978616669
sg7
F-4.642253978616669
sa(dp168
g6
F-4.642253978616669
sg7
F-4.642253978616669
sa(dp169
g6
F-4.642253978616669
sg7
F-4.642253978616669
sa(dp170
g6
F-4.642253978616669
sg7
F-4.642253978616669
sa(dp171
g6
F-4.642253978616669
sg7
F-4.642253978616669
sa(dp172
g6
F-4.642253978616669
sg7
F-4.642253978616669
sa(dp173
g6
F-4.642253978616669
sg7
F-4.642253978616669
sa(dp174
g6
F-4.642253978616669
sg7
F-4.642253978616669
sa(dp175
g6
F-4.642253978616669
sg7
F-4.642253978616669
sa(dp176
g6
F-4.642253978616669
sg7
F-4.642253978616669
sa(dp177
g6
F-4.642253978616669
sg7
F-4.642253978616669
sa(dp178
g6
F-4.642253978616669
sg7
F-4.642253978616669
sa(dp179
g6
F-4.642253978616669
sg7
F-4.642253978616669
sa(dp180
g6
F-4.642253978616669
sg7
F-4.642253978616669
sa(dp181
g6
F-4.642253978616669
sg7
F-4.642253978616669
sa(dp182
g6
F-4.642253978616669
sg7
F-4.642253978616669
sa(dp183
g6
F-4.642253978616669
sg7
F-4.642253978616669
sa(dp184
g6
F-4.642253978616669
sg7
F-4.642253978616669
sa(dp185
g6
F-4.642253978616669
sg7
F-4.642253978616669
sa(dp186
g6
F-4.642253978616669
sg7
F-4.642253978616669
sa(dp187
g6
F-4.642253978616669
sg7
F-4.642253978616669
sa(dp188
g6
F-4.642253978616669
sg7
F-4.642253978616669
sa(dp189
g6
F-4.642253978616669
sg7
F-4.642253978616669
sa(dp190
g6
F-4.642253978616669
sg7
F-4.642253978616669
sa(dp191
g6
F-4.642253978616669
sg7
F-4.642253978616669
sa(dp192
g6
F-4.642253978616669
sg7
F-4.642253978616669
sa(dp193
g6
F-4.642253978616669
sg7
F-4.642253978616669
sa(dp194
g6
F-4.642253978616669
sg7
F-4.642253978616669
sa(dp195
g6
F-4.642253978616669
sg7
F-4.642253978616669
sa(dp196
g6
F-4.642253978616669
sg7
F-4.642253978616669
sa(dp197
g6
F-4.642253978616669
sg7
F-4.642253978616669
sa(dp198
g6
F-4.642253978616669
sg7
F-4.642253978616669
sa(dp199
g6
F-4.642253978616669
sg7
F-4.642253978616669
sa(dp200
g6
F-4.642253978616669
sg7
F-4.642253978616669
sa(dp201
g6
F-4.642253978616669
sg7
F-4.642253978616669
sa(dp202
g6
F-4.642253978616669
sg7
F-4.642253978616669
sa(dp203
g6
F-4.642253978616669
sg7
F-4.642253978616669
sa(dp204
g6
F-4.642253978616669
sg7
F-4.642253978616669
sa(dp205
g6
F-4.642253978616669
sg7
F-4.642253978616669
sa(dp206
g6
F-4.642253978616669
sg7
F-4.642253978616669
sa(dp207
g6
F-4.642253978616669
sg7
F-4.642253978616669
sa(dp208
g6
F-4.642253978616669
sg7
F-4.642253978616669
sa(dp209
g6
F-4.642253978616669
sg7
F-4.642253978616669
sa(dp210
g6
F-4.642253978616669
sg7
F-4.642253978616669
sa(dp211
g6
F-4.642253978616669
sg7
F-4.642253978616669
sa(dp212
g6
F-4.642253978616669
sg7
F-4.642253978616669
sa(dp213
g6
F-4.642253978616669
sg7
F-4.642253978616669
sa(dp214
g6
F-4.642253978616669
sg7
F-4.642253978616669
sa(dp215
g6
F-4.642253978616669
sg7
F-4.642253978616669
sa(dp216
g6
F-4.642253978616669
sg7
F-4.642253978616669
sa(dp217
g6
F-4.642253978616669
sg7
F-4.642253978616669
sa(dp218
g6
F-4.642253978616669
sg7
F-4.642253978616669
sa(dp219
g6
F-4.642253978616669
sg7
F-4.642253978616669
sa(dp220
g6
F-4.642253978616669
sg7
F-4.642253978616669
sa(dp221
g6
F-4.642253978616669
sg7
F-4.642253978616669
sa(dp222
g6
F-4.642253978616669
sg7
F-4.642253978616669
sa(dp223
g6
F-4.642253978616669
sg7
F-4.642253978616669
sa(dp224
g6
F-4.642253978616669
sg7
F-4.642253978616669
sa(dp225
g6
F-4.642253978616669
sg7
F-4.642253978616669
sa(dp226
g6
F-4.642253978616669
sg7
F-4.642253978616669
sa(dp227
g6
F-4.642253978616669
sg7
F-4.642253978616669
sa(dp228
g6
F-4.642253978616669
sg7
F-4.642253978616669
sa(dp229
g6
F-4.642253978616669
sg7
F-4.642253978616669
sa(dp230
g6
F-4.642253978616669
sg7
F-4.642253978616669
sa(dp231
g6
F-4.642253978616669
sg7
F-4.642253978616669
sa(dp232
g6
F-4.642253978616669
sg7
F-4.642253978616669
sa(dp233
g6
F-4.642253978616669
sg7
F-4.642253978616669
sa(dp234
g6
F-4.642253978616669
sg7
F-4.642253978616669
sa(dp235
g6
F-4.642253978616669
sg7
F-4.642253978616669
sa(dp236
g6
F-4.642253978616669
sg7
F-4.642253978616669
sa(dp237
g6
F-4.642253978616669
sg7
F-4.642253978616669
sa(dp238
g6
F-4.642253978616669
sg7
F-4.642253978616669
sa(dp239
g6
F-4.642253978616669
sg7
F-4.642253978616669
sa(dp240
g6
F-4.642253978616669
sg7
F-4.642253978616669
sa(dp241
g6
F-4.642253978616669
sg7
F-4.642253978616669
sa(dp242
g6
F-4.642253978616669
sg7
F-4.642253978616669
sa(dp243
g6
F-4.642253978616669
sg7
F-4.642253978616669
sa(dp244
g6
F-4.642253978616669
sg7
F-4.642253978616669
sa(dp245
g6
F-4.642253978616669
sg7
F-4.642253978616669
sa(dp246
g6
F-4.642253978616669
sg7
F-4.642253978616669
sa(dp247
g6
F-4.642253978616669
sg7
F-4.642253978616669
sa(dp248
g6
F-4.642253978616669
sg7
F-4.642253978616669
sa(dp249
g6
F-4.642253978616669
sg7
F-4.642253978616669
sa(dp250
g6
F-4.642253978616669
sg7
F-4.642253978616669
sa(dp251
g6
F-4.629311219404725
sg7
F-4.629311219404725
sa(dp252
g6
F-4.629311219404725
sg7
F-4.629311219404725
sa(dp253
g6
F-4.629311219404725
sg7
F-4.629311219404725
sa(dp254
g6
F-4.629311219404725
sg7
F-4.629311219404725
sa(dp255
g6
F-4.611109688682699
sg7
F-4.611109688682699
sa(dp256
g6
F-4.611109688682699
sg7
F-4.611109688682699
sa(dp257
g6
F-4.611109688682699
sg7
F-4.611109688682699
sa(dp258
g6
F-4.611109688682699
sg7
F-4.611109688682699
sa(dp259
g6
F-4.595630344107853
sg7
F-4.595630344107853
sa(dp260
g6
F-4.595630344107853
sg7
F-4.595630344107853
sa(dp261
g6
F-4.595630344107853
sg7
F-4.595630344107853
sa(dp262
g6
F-4.595630344107853
sg7
F-4.595630344107853
sa(dp263
g6
F-4.573341514036846
sg7
F-4.573341514036846
sa(dp264
g6
F-4.573341514036846
sg7
F-4.573341514036846
sa(dp265
g6
F-4.573341514036846
sg7
F-4.573341514036846
sa(dp266
g6
F-4.573341514036846
sg7
F-4.573341514036846
sa(dp267
g6
F-4.563154987677786
sg7
F-4.563154987677786
sa(dp268
g6
F-4.563154987677786
sg7
F-4.563154987677786
sa(dp269
g6
F-4.563154987677786
sg7
F-4.563154987677786
sa(dp270
g6
F-4.563154987677786
sg7
F-4.563154987677786
sa(dp271
g6
F-4.543913463302932
sg7
F-4.543913463302932
sa(dp272
g6
F-4.543913463302932
sg7
F-4.543913463302932
sa(dp273
g6
F-4.543913463302932
sg7
F-4.543913463302932
sa(dp274
g6
F-4.543913463302932
sg7
F-4.543913463302932
sa(dp275
g6
F-4.506299586870293
sg7
F-4.506299586870293
sa(dp276
g6
F-4.506299586870293
sg7
F-4.506299586870293
sa(dp277
g6
F-4.506299586870293
sg7
F-4.506299586870293
sa(dp278
g6
F-4.506299586870293
sg7
F-4.506299586870293
sa(dp279
g6
F-4.47652953627599
sg7
F-4.47652953627599
sa(dp280
g6
F-4.47652953627599
sg7
F-4.47652953627599
sa(dp281
g6
F-4.47652953627599
sg7
F-4.47652953627599
sa(dp282
g6
F-4.47652953627599
sg7
F-4.47652953627599
sa(dp283
g6
F-4.454641520385943
sg7
F-4.454641520385943
sa(dp284
g6
F-4.454641520385943
sg7
F-4.454641520385943
sa(dp285
g6
F-4.454641520385943
sg7
F-4.454641520385943
sa(dp286
g6
F-4.454641520385943
sg7
F-4.454641520385943
sa(dp287
g6
F-4.440263995659486
sg7
F-4.440263995659486
sa(dp288
g6
F-4.440263995659486
sg7
F-4.440263995659486
sa(dp289
g6
F-4.440263995659486
sg7
F-4.440263995659486
sa(dp290
g6
F-4.426762595744821
sg7
F-4.426762595744821
sa(dp291
g6
F-4.426762595744821
sg7
F-4.426762595744821
sa(dp292
g6
F-4.426762595744821
sg7
F-4.426762595744821
sa(dp293
g6
F-4.4245474523134485
sg7
F-4.4245474523134485
sa(dp294
g6
F-4.4245474523134485
sg7
F-4.4245474523134485
sa(dp295
g6
F-4.4245474523134485
sg7
F-4.4245474523134485
sa(dp296
g6
F-4.431790248046533
sg7
F-4.431790248046533
sa(dp297
g6
F-4.431790248046533
sg7
F-4.431790248046533
sa(dp298
g6
F-4.431790248046533
sg7
F-4.431790248046533
sa(dp299
g6
F-4.431790248046533
sg7
F-4.431790248046533
sa(dp300
g6
F-4.43626587582674
sg7
F-4.43626587582674
sa(dp301
g6
F-4.43626587582674
sg7
F-4.43626587582674
sa(dp302
g6
F-4.43626587582674
sg7
F-4.43626587582674
sa(dp303
g6
F-4.43626587582674
sg7
F-4.43626587582674
sa(dp304
g6
F-4.437219364543227
sg7
F-4.437219364543227
sa(dp305
g6
F-4.437219364543227
sg7
F-4.437219364543227
sa(dp306
g6
F-4.437219364543227
sg7
F-4.437219364543227
sa(dp307
g6
F-4.437219364543227
sg7
F-4.437219364543227
sa(dp308
g6
F-4.437219364543227
sg7
F-4.437219364543227
sa(dp309
g6
F-4.450000112285843
sg7
F-4.450000112285843
sa(dp310
g6
F-4.450000112285843
sg7
F-4.450000112285843
sa(dp311
g6
F-4.450000112285843
sg7
F-4.450000112285843
sa(dp312
g6
F-4.450000112285843
sg7
F-4.450000112285843
sa(dp313
g6
F-4.450000112285843
sg7
F-4.450000112285843
sa(dp314
g6
F-4.46447975203851
sg7
F-4.46447975203851
sa(dp315
g6
F-4.46447975203851
sg7
F-4.46447975203851
sa(dp316
g6
F-4.46447975203851
sg7
F-4.46447975203851
sa(dp317
g6
F-4.46447975203851
sg7
F-4.46447975203851
sa(dp318
g6
F-4.458890237708386
sg7
F-4.458890237708386
sa(dp319
g6
F-4.458890237708386
sg7
F-4.458890237708386
sa(dp320
g6
F-4.458890237708386
sg7
F-4.458890237708386
sa(dp321
g6
F-4.458890237708386
sg7
F-4.458890237708386
sa(dp322
g6
F-4.451400758306132
sg7
F-4.451400758306132
sa(dp323
g6
F-4.451400758306132
sg7
F-4.451400758306132
sa(dp324
g6
F-4.451400758306132
sg7
F-4.451400758306132
sa(dp325
g6
F-4.451400758306132
sg7
F-4.451400758306132
sa(dp326
g6
F-4.449498338778568
sg7
F-4.449498338778568
sa(dp327
g6
F-4.449498338778568
sg7
F-4.449498338778568
sa(dp328
g6
F-4.449498338778568
sg7
F-4.449498338778568
sa(dp329
g6
F-4.449498338778568
sg7
F-4.449498338778568
sa(dp330
g6
F-4.4527574113903325
sg7
F-4.4527574113903325
sa(dp331
g6
F-4.4527574113903325
sg7
F-4.4527574113903325
sa(dp332
g6
F-4.4527574113903325
sg7
F-4.4527574113903325
sa(dp333
g6
F-4.4527574113903325
sg7
F-4.4527574113903325
sa(dp334
g6
F-4.4527574113903325
sg7
F-4.4527574113903325
sa(dp335
g6
F-4.451223903251994
sg7
F-4.451223903251994
sa(dp336
g6
F-4.451223903251994
sg7
F-4.451223903251994
sa(dp337
g6
F-4.451223903251994
sg7
F-4.451223903251994
sa(dp338
g6
F-4.451223903251994
sg7
F-4.451223903251994
sa(dp339
g6
F-4.441647813762183
sg7
F-4.441647813762183
sa(dp340
g6
F-4.441647813762183
sg7
F-4.441647813762183
sa(dp341
g6
F-4.441647813762183
sg7
F-4.441647813762183
sa(dp342
g6
F-4.441647813762183
sg7
F-4.441647813762183
sa(dp343
g6
F-4.421623125891558
sg7
F-4.421623125891558
sa(dp344
g6
F-4.421623125891558
sg7
F-4.421623125891558
sa(dp345
g6
F-4.421623125891558
sg7
F-4.421623125891558
sa(dp346
g6
F-4.421623125891558
sg7
F-4.421623125891558
sa(dp347
g6
F-4.420216748642487
sg7
F-4.420216748642487
sa(dp348
g6
F-4.420216748642487
sg7
F-4.420216748642487
sa(dp349
g6
F-4.420216748642487
sg7
F-4.420216748642487
sa(dp350
g6
F-4.420216748642487
sg7
F-4.420216748642487
sa(dp351
g6
F-4.412230064144256
sg7
F-4.412230064144256
sa(dp352
g6
F-4.412230064144256
sg7
F-4.412230064144256
sa(dp353
g6
F-4.412230064144256
sg7
F-4.412230064144256
sa(dp354
g6
F-4.412230064144256
sg7
F-4.412230064144256
sa(dp355
g6
F-4.415228994523125
sg7
F-4.415228994523125
sa(dp356
g6
F-4.415228994523125
sg7
F-4.415228994523125
sa(dp357
g6
F-4.415228994523125
sg7
F-4.415228994523125
sa(dp358
g6
F-4.415228994523125
sg7
F-4.415228994523125
sa(dp359
g6
F-4.414866740658685
sg7
F-4.414866740658685
sa(dp360
g6
F-4.414866740658685
sg7
F-4.414866740658685
sa(dp361
g6
F-4.414866740658685
sg7
F-4.414866740658685
sa(dp362
g6
F-4.414866740658685
sg7
F-4.414866740658685
sa(dp363
g6
F-4.40963746486072
sg7
F-4.40963746486072
sa(dp364
g6
F-4.40963746486072
sg7
F-4.40963746486072
sa(dp365
g6
F-4.40963746486072
sg7
F-4.40963746486072
sa(dp366
g6
F-4.40963746486072
sg7
F-4.40963746486072
sa(dp367
g6
F-4.41573258188984
sg7
F-4.41573258188984
sa(dp368
g6
F-4.41573258188984
sg7
F-4.41573258188984
sa(dp369
g6
F-4.41573258188984
sg7
F-4.41573258188984
sa(dp370
g6
F-4.430447863925199
sg7
F-4.430447863925199
sa(dp371
g6
F-4.430447863925199
sg7
F-4.430447863925199
sa(dp372
g6
F-4.430447863925199
sg7
F-4.430447863925199
sa(dp373
g6
F-4.434863663937943
sg7
F-4.434863663937943
sa(dp374
g6
F-4.434863663937943
sg7
F-4.434863663937943
sa(dp375
g6
F-4.434863663937943
sg7
F-4.434863663937943
sa(dp376
g6
F-4.444565641768657
sg7
F-4.444565641768657
sa(dp377
g6
F-4.444565641768657
sg7
F-4.444565641768657
sa(dp378
g6
F-4.444565641768657
sg7
F-4.444565641768657
sa(dp379
g6
F-4.44060532556389
sg7
F-4.44060532556389
sa(dp380
g6
F-4.44060532556389
sg7
F-4.44060532556389
sa(dp381
g6
F-4.44060532556389
sg7
F-4.44060532556389
sa(dp382
g6
F-4.443108523770118
sg7
F-4.443108523770118
sa(dp383
g6
F-4.443108523770118
sg7
F-4.443108523770118
sa(dp384
g6
F-4.443108523770118
sg7
F-4.443108523770118
sa(dp385
g6
F-4.443108523770118
sg7
F-4.443108523770118
sa(dp386
g6
F-4.446918405190396
sg7
F-4.446918405190396
sa(dp387
g6
F-4.446918405190396
sg7
F-4.446918405190396
sa(dp388
g6
F-4.446918405190396
sg7
F-4.446918405190396
sa(dp389
g6
F-4.446918405190396
sg7
F-4.446918405190396
sa(dp390
g6
F-4.4498371772819505
sg7
F-4.4498371772819505
sa(dp391
g6
F-4.4498371772819505
sg7
F-4.4498371772819505
sa(dp392
g6
F-4.4498371772819505
sg7
F-4.4498371772819505
sa(dp393
g6
F-4.4498371772819505
sg7
F-4.4498371772819505
sa(dp394
g6
F-4.4498371772819505
sg7
F-4.4498371772819505
sa(dp395
g6
F-4.4469149941522925
sg7
F-4.4469149941522925
sa(dp396
g6
F-4.4469149941522925
sg7
F-4.4469149941522925
sa(dp397
g6
F-4.4469149941522925
sg7
F-4.4469149941522925
sa(dp398
g6
F-4.4469149941522925
sg7
F-4.4469149941522925
sa(dp399
g6
F-4.4469149941522925
sg7
F-4.4469149941522925
sa(dp400
g6
F-4.4469149941522925
sg7
F-4.4469149941522925
sa(dp401
g6
F-4.443276946729281
sg7
F-4.443276946729281
sa(dp402
g6
F-4.443276946729281
sg7
F-4.443276946729281
sa(dp403
g6
F-4.443276946729281
sg7
F-4.443276946729281
sa(dp404
g6
F-4.443276946729281
sg7
F-4.443276946729281
sa(dp405
g6
F-4.443276946729281
sg7
F-4.443276946729281
sa(dp406
g6
F-4.443276946729281
sg7
F-4.443276946729281
sa(dp407
g6
F-4.443276946729281
sg7
F-4.443276946729281
sa(dp408
g6
F-4.443276946729281
sg7
F-4.443276946729281
sa(dp409
g6
F-4.443276946729281
sg7
F-4.443276946729281
sa(dp410
g6
F-4.443276946729281
sg7
F-4.443276946729281
sa(dp411
g6
F-4.443276946729281
sg7
F-4.443276946729281
sa(dp412
g6
F-4.443276946729281
sg7
F-4.443276946729281
sa(dp413
g6
F-4.443276946729281
sg7
F-4.443276946729281
sa(dp414
g6
F-4.443276946729281
sg7
F-4.443276946729281
sa(dp415
g6
F-4.443276946729281
sg7
F-4.443276946729281
sa(dp416
g6
F-4.443276946729281
sg7
F-4.443276946729281
sa(dp417
g6
F-4.443276946729281
sg7
F-4.443276946729281
sa(dp418
g6
F-4.443276946729281
sg7
F-4.443276946729281
sa(dp419
g6
F-4.443276946729281
sg7
F-4.443276946729281
sa(dp420
g6
F-4.443276946729281
sg7
F-4.443276946729281
sa(dp421
g6
F-4.443276946729281
sg7
F-4.443276946729281
sa(dp422
g6
F-4.443276946729281
sg7
F-4.443276946729281
sa(dp423
g6
F-4.443276946729281
sg7
F-4.443276946729281
sa(dp424
g6
F-4.443276946729281
sg7
F-4.443276946729281
sa(dp425
g6
F-4.443276946729281
sg7
F-4.443276946729281
sa(dp426
g6
F-4.443276946729281
sg7
F-4.443276946729281
sa(dp427
g6
F-4.443276946729281
sg7
F-4.443276946729281
sa(dp428
g6
F-4.443276946729281
sg7
F-4.443276946729281
sa(dp429
g6
F-4.443276946729281
sg7
F-4.443276946729281
sa(dp430
g6
F-4.443276946729281
sg7
F-4.443276946729281
sa(dp431
g6
F-4.443276946729281
sg7
F-4.443276946729281
sa(dp432
g6
F-4.443276946729281
sg7
F-4.443276946729281
sa(dp433
g6
F-4.443276946729281
sg7
F-4.443276946729281
sa(dp434
g6
F-4.443276946729281
sg7
F-4.443276946729281
sa(dp435
g6
F-4.443276946729281
sg7
F-4.443276946729281
sa(dp436
g6
F-4.443276946729281
sg7
F-4.443276946729281
sa(dp437
g6
F-4.443276946729281
sg7
F-4.443276946729281
sa(dp438
g6
F-4.443276946729281
sg7
F-4.443276946729281
sasS'time'
p439
(lp440
F1576184563.9941096
aF1576184563.9980688
aF1576184564.0020485
aF1576184564.0064554
aF1576184564.0102234
aF1576184564.0141857
aF1576184564.0182312
aF1576184564.0222163
aF1576184564.026388
aF1576184564.0302665
aF1576184564.0342555
aF1576184564.0391092
aF1576184564.0422773
aF1576184564.0463872
aF1576184564.0502274
aF1576184564.0542266
aF1576184564.0583346
aF1576184564.0622127
aF1576184564.0663724
aF1576184564.070295
aF1576184564.0742435
aF1576184564.0781956
aF1576184564.082222
aF1576184564.0862315
aF1576184564.0902703
aF1576184564.094189
aF1576184564.0982516
aF1576184564.1022065
aF1576184564.106298
aF1576184564.1101892
aF1576184564.1143456
aF1576184564.118443
aF1576184564.122487
aF1576184564.1265032
aF1576184564.1305077
aF1576184564.1353211
aF1576184564.1384943
aF1576184564.1424553
aF1576184564.1467135
aF1576184564.150755
aF1576184564.154772
aF1576184564.1587787
aF1576184564.1627696
aF1576184564.1667569
aF1576184564.1707692
aF1576184564.1748056
aF1576184564.1787298
aF1576184564.1827598
aF1576184564.1867595
aF1576184564.1907566
aF1576184564.1947587
aF1576184564.1987576
aF1576184564.2027683
aF1576184564.2067485
aF1576184564.2107568
aF1576184564.2148178
aF1576184564.2187667
aF1576184564.2227643
aF1576184564.2267067
aF1576184564.2306743
aF1576184564.2350116
aF1576184564.238753
aF1576184564.2427037
aF1576184564.2469287
aF1576184564.2508054
aF1576184564.254683
aF1576184564.2588472
aF1576184564.2627254
aF1576184564.2667415
aF1576184564.2706785
aF1576184564.274684
aF1576184564.2787895
aF1576184564.2827165
aF1576184564.286724
aF1576184564.2907152
aF1576184564.2947223
aF1576184564.2986784
aF1576184564.302784
aF1576184564.3067503
aF1576184564.3107026
aF1576184564.3147278
aF1576184564.318669
aF1576184564.3227103
aF1576184564.3267088
aF1576184564.3307037
aF1576184564.3347027
aF1576184564.3387604
aF1576184564.3427958
aF1576184564.3467183
aF1576184564.3507478
aF1576184564.354662
aF1576184564.3589337
aF1576184564.3627741
aF1576184564.3666975
aF1576184564.370709
aF1576184564.3747475
aF1576184564.378718
aF1576184564.3827267
aF1576184564.3866832
aF1576184564.3909707
aF1576184564.3947906
aF1576184564.3991392
aF1576184564.402681
aF1576184564.4067757
aF1576184564.4107761
aF1576184564.414709
aF1576184564.418705
aF1576184564.422658
aF1576184564.426673
aF1576184564.4309814
aF1576184564.4347694
aF1576184564.4387197
aF1576184564.4428582
aF1576184564.4468298
aF1576184564.451065
aF1576184564.4550788
aF1576184564.4597178
aF1576184564.4638984
aF1576184564.46841
aF1576184564.4727678
aF1576184564.4771419
aF1576184564.4818962
aF1576184564.4863994
aF1576184564.4910762
aF1576184564.4957952
aF1576184564.4998434
aF1576184564.5040925
aF1576184564.5086763
aF1576184564.5131016
aF1576184564.5176735
aF1576184564.5220807
aF1576184564.5267744
aF1576184564.5308757
aF1576184564.5348258
aF1576184564.5391164
aF1576184564.543286
aF1576184564.5474567
aF1576184564.5519676
aF1576184564.5558438
aF1576184564.5601
aF1576184564.5641532
aF1576184564.5682802
aF1576184564.5723987
aF1576184564.5768027
aF1576184564.5808203
aF1576184564.5849214
aF1576184564.5890398
aF1576184564.5931528
aF1576184564.5972745
aF1576184564.601479
aF1576184564.6057463
aF1576184564.6099007
aF1576184564.6138408
aF1576184564.6177769
aF1576184564.6219823
aF1576184564.6259196
aF1576184564.6299982
aF1576184564.6349494
aF1576184564.6382215
aF1576184564.642152
aF1576184564.6463113
aF1576184564.6505249
aF1576184564.6544955
aF1576184564.6590238
aF1576184564.6628723
aF1576184564.6668553
aF1576184564.6708984
aF1576184564.6749394
aF1576184564.6791837
aF1576184564.6829631
aF1576184564.6870775
aF1576184564.6911464
aF1576184564.6949813
aF1576184564.6989844
aF1576184564.7029865
aF1576184564.7070847
aF1576184564.7111638
aF1576184564.7151675
aF1576184564.7192588
aF1576184564.7233117
aF1576184564.7291377
aF1576184564.7316265
aF1576184564.7357323
aF1576184564.7402775
aF1576184564.7440298
aF1576184564.7479901
aF1576184564.7521605
aF1576184564.7560856
aF1576184564.7602785
aF1576184564.7642179
aF1576184564.7681696
aF1576184564.7721307
aF1576184564.776249
aF1576184564.7802055
aF1576184564.784287
aF1576184564.7883968
aF1576184564.7924042
aF1576184564.7963812
aF1576184564.8003745
aF1576184564.8044014
aF1576184564.808389
aF1576184564.8123698
aF1576184564.816468
aF1576184564.820966
aF1576184564.8251574
aF1576184564.8293822
aF1576184564.833745
aF1576184564.8374689
aF1576184564.8413982
aF1576184564.8455167
aF1576184564.8494027
aF1576184564.8534305
aF1576184564.8575888
aF1576184564.861668
aF1576184564.8657174
aF1576184564.869613
aF1576184564.873617
aF1576184564.8776112
aF1576184564.8816855
aF1576184564.8858368
aF1576184564.8899155
aF1576184564.8943918
aF1576184564.8983195
aF1576184564.9022424
aF1576184564.906312
aF1576184564.9102232
aF1576184564.9143434
aF1576184564.9183347
aF1576184564.9222937
aF1576184564.926712
aF1576184564.9308374
aF1576184564.935237
aF1576184564.9393194
aF1576184564.9434083
aF1576184564.9475875
aF1576184564.9516761
aF1576184564.955613
aF1576184564.959582
aF1576184564.9635973
aF1576184564.967603
aF1576184564.9717574
aF1576184564.975739
aF1576184564.979796
aF1576184564.9838142
aF1576184564.9878047
aF1576184564.9917324
aF1576184564.995708
aF1576184564.9998014
aF1576184565.003744
aF1576184565.0077996
aF1576184565.0118558
aF1576184565.015919
aF1576184565.0200016
aF1576184565.0241444
aF1576184565.0283966
aF1576184565.0325024
aF1576184565.036765
aF1576184565.0407271
aF1576184565.0447605
aF1576184565.0487576
aF1576184565.052773
aF1576184565.056721
aF1576184565.0608537
aF1576184565.0648603
aF1576184565.0688941
aF1576184565.0729923
aF1576184565.0770724
aF1576184565.0810876
aF1576184565.0850723
aF1576184565.0891528
aF1576184565.0932121
aF1576184565.0976093
aF1576184565.1015537
aF1576184565.105665
aF1576184565.1095881
aF1576184565.113722
aF1576184565.1176355
aF1576184565.121618
aF1576184565.1255991
aF1576184565.129642
aF1576184565.1336997
aF1576184565.137705
aF1576184565.141738
aF1576184565.14581
aF1576184565.1497924
aF1576184565.1538925
aF1576184565.1578255
aF1576184565.1618729
aF1576184565.1659026
aF1576184565.1698859
aF1576184565.1738665
aF1576184565.1779013
aF1576184565.1819022
aF1576184565.1863408
aF1576184565.190092
aF1576184565.1940873
aF1576184565.1987634
aF1576184565.203095
aF1576184565.207826
aF1576184565.2122347
aF1576184565.2169209
aF1576184565.22134
aF1576184565.2264605
aF1576184565.2303824
aF1576184565.2365372
aF1576184565.239851
aF1576184565.2440991
aF1576184565.248694
aF1576184565.2531383
aF1576184565.257721
aF1576184565.2619202
aF1576184565.2660396
aF1576184565.2701077
aF1576184565.2740712
aF1576184565.278226
aF1576184565.282233
aF1576184565.2867012
aF1576184565.2907717
aF1576184565.2948558
aF1576184565.2992609
aF1576184565.3031795
aF1576184565.3073332
aF1576184565.31137
aF1576184565.3153355
aF1576184565.3197753
aF1576184565.3236818
aF1576184565.328146
aF1576184565.3317404
aF1576184565.3357432
aF1576184565.339804
aF1576184565.343751
aF1576184565.34786
aF1576184565.351784
aF1576184565.355821
aF1576184565.3597767
aF1576184565.363945
aF1576184565.3678534
aF1576184565.3718631
aF1576184565.3758337
aF1576184565.3798838
aF1576184565.3838556
aF1576184565.3877933
aF1576184565.3919904
aF1576184565.3963661
aF1576184565.400118
aF1576184565.4040768
aF1576184565.4080756
aF1576184565.412132
aF1576184565.4163733
aF1576184565.4200957
aF1576184565.4241211
aF1576184565.4281306
aF1576184565.4347863
aF1576184565.4362352
aF1576184565.4403074
aF1576184565.4442728
aF1576184565.4484298
aF1576184565.4523666
aF1576184565.456978
aF1576184565.4604015
aF1576184565.4648817
aF1576184565.4687207
aF1576184565.4727442
aF1576184565.4769876
aF1576184565.4809763
aF1576184565.4850001
aF1576184565.4890552
aF1576184565.4929903
aF1576184565.4969432
aF1576184565.5010078
aF1576184565.5049713
aF1576184565.5089667
aF1576184565.5129743
aF1576184565.5169857
aF1576184565.5209758
aF1576184565.525237
aF1576184565.5289392
aF1576184565.5473762
aF1576184565.547379
aF1576184565.5473816
aF1576184565.5473933
aF1576184565.5491114
aF1576184565.5531433
aF1576184565.5570786
aF1576184565.5611129
aF1576184565.5651176
aF1576184565.569096
aF1576184565.5731127
aF1576184565.5770836
aF1576184565.581066
aF1576184565.5850706
aF1576184565.5890927
aF1576184565.593717
aF1576184565.5970907
aF1576184565.601117
aF1576184565.6050594
aF1576184565.6090703
aF1576184565.613108
aF1576184565.617091
aF1576184565.6211023
aF1576184565.6250863
aF1576184565.6291752
aF1576184565.6332073
aF1576184565.642927
aF1576184565.6429336
aF1576184565.6451812
aF1576184565.6492538
aF1576184565.6531775
aF1576184565.6571524
aF1576184565.6612115
aF1576184565.6651816
aF1576184565.669165
aF1576184565.6731496
aF1576184565.6772127
aF1576184565.6811526
aF1576184565.6851466
aF1576184565.689159
aF1576184565.6932487
aF1576184565.6971753
aF1576184565.701443
aF1576184565.7053053
aF1576184565.709292
aF1576184565.713436
aF1576184565.71732
aF1576184565.7213786
aF1576184565.725284
aF1576184565.7294044
aF1576184565.7333634
aF1576184565.737407
aF1576184565.741663
aF1576184565.7455597
aF1576184565.749574
aF1576184565.753564
aF1576184565.7575467
aF1576184565.761877
aF1576184565.7655396
aF1576184565.7695339
aF1576184565.7735445
aF1576184565.777564
aF1576184565.7818837
aF1576184565.785521
aF1576184565.7895348
aF1576184565.7935114
aF1576184565.797509
aF1576184565.8020744
aF1576184565.805557
aF1576184565.809587
aF1576184565.813575
aF1576184565.8175166
aF1576184565.821531
aF1576184565.8255866
aF1576184565.8295891
aF1576184565.8335989
aF1576184565.8376026
aF1576184565.8415833
aF1576184565.8455472
aF1576184565.849598
aF1576184565.853597
aF1576184565.8575528
aF1576184565.86162
aF1576184565.865624
aF1576184565.869503
aF1576184565.873673
aF1576184565.8776994
aF1576184565.8816795
aF1576184565.885628
aF1576184565.8896744
aF1576184565.8937044
aF1576184565.897648
aF1576184565.9016235
aF1576184565.905656
aF1576184565.909708
aF1576184565.9136622
aF1576184565.917614
aF1576184565.9216824
aF1576184565.925712
aF1576184565.930183
aF1576184565.937961
aF1576184565.93918
aF1576184565.943786
aF1576184565.9481888
aF1576184565.9528124
aF1576184565.9571826
aF1576184565.9617455
aF1576184565.9656339
aF1576184565.9698048
aF1576184565.9742863
aF1576184565.9788918
aF1576184565.9834826
aF1576184565.9882607
aF1576184565.9926734
aF1576184565.996777
aF1576184566.0007763
aF1576184566.004778
aF1576184566.0087857
aF1576184566.0127435
aF1576184566.0167778
aF1576184566.0208497
aF1576184566.024861
aF1576184566.02885
aF1576184566.034975
aF1576184566.0368104
aF1576184566.0408244
aF1576184566.044834
aF1576184566.0488458
aF1576184566.0529413
aF1576184566.0569382
aF1576184566.0608509
aF1576184566.0649397
aF1576184566.0689228
aF1576184566.0729356
aF1576184566.07689
aF1576184566.080881
aF1576184566.0850854
aF1576184566.0891
aF1576184566.0929852
aF1576184566.0970964
aF1576184566.1010091
aF1576184566.105103
aF1576184566.1090484
aF1576184566.11319
aF1576184566.1172347
aF1576184566.1215088
aF1576184566.1258109
aF1576184566.1297824
aF1576184566.133808
aF1576184566.1378598
aF1576184566.1417835
aF1576184566.145786
aF1576184566.1498084
aF1576184566.153811
aF1576184566.157798
aF1576184566.1617472
aF1576184566.1657987
aF1576184566.1698077
aF1576184566.1738195
aF1576184566.177857
aF1576184566.1818547
aF1576184566.1858685
aF1576184566.1899064
aF1576184566.1938496
aF1576184566.1978753
aF1576184566.2018461
aF1576184566.2058666
aF1576184566.2099624
aF1576184566.213847
aF1576184566.2178514
aF1576184566.2218654
aF1576184566.2258787
aF1576184566.2299714
aF1576184566.233953
aF1576184566.2379093
aF1576184566.2419326
aF1576184566.2463744
aF1576184566.2501187
aF1576184566.2539265
aF1576184566.2578623
aF1576184566.2622054
aF1576184566.266367
aF1576184566.2700212
aF1576184566.2739599
aF1576184566.2779503
aF1576184566.2819748
aF1576184566.2860296
aF1576184566.2899852
aF1576184566.29399
aF1576184566.2979796
aF1576184566.302028
aF1576184566.3059814
aF1576184566.3099504
aF1576184566.3140774
aF1576184566.3181114
aF1576184566.3221452
aF1576184566.3262727
aF1576184566.330261
aF1576184566.3344808
aF1576184566.3385482
aF1576184566.3426418
aF1576184566.3466835
aF1576184566.3508012
aF1576184566.3549554
aF1576184566.3591232
aF1576184566.3631525
aF1576184566.3671784
aF1576184566.3711174
aF1576184566.3752198
aF1576184566.3792174
aF1576184566.3833272
aF1576184566.38748
aF1576184566.3915467
aF1576184566.3956065
aF1576184566.3996248
aF1576184566.403578
aF1576184566.4076421
aF1576184566.4116943
aF1576184566.4155846
aF1576184566.4196146
aF1576184566.4237483
aF1576184566.427883
aF1576184566.4321358
aF1576184566.4365387
aF1576184566.4402459
aF1576184566.4442017
aF1576184566.4482362
aF1576184566.4522672
aF1576184566.45655
aF1576184566.4604802
aF1576184566.4645464
aF1576184566.4686337
aF1576184566.4726212
aF1576184566.4766784
aF1576184566.4807458
aF1576184566.484743
aF1576184566.4907207
aF1576184566.4928744
aF1576184566.4968348
aF1576184566.5007272
aF1576184566.5048559
aF1576184566.5090194
aF1576184566.5132298
aF1576184566.5173788
aF1576184566.521425
aF1576184566.5254295
aF1576184566.5294008
aF1576184566.5334063
aF1576184566.5376267
aF1576184566.541465
aF1576184566.5456474
aF1576184566.5497756
aF1576184566.5537715
aF1576184566.5577438
aF1576184566.5619254
aF1576184566.5657628
aF1576184566.5697627
aF1576184566.573766
aF1576184566.5779116
aF1576184566.581952
aF1576184566.586099
aF1576184566.5903802
aF1576184566.5944114
aF1576184566.5985913
aF1576184566.6026309
aF1576184566.6066396
aF1576184566.6105502
aF1576184566.6147895
aF1576184566.618783
aF1576184566.6228502
aF1576184566.6269708
aF1576184566.6312358
aF1576184566.636795
aF1576184566.6390562
aF1576184566.6433358
aF1576184566.647473
aF1576184566.6514575
aF1576184566.6557338
aF1576184566.6597705
aF1576184566.6641273
aF1576184566.6685529
aF1576184566.6730943
aF1576184566.6777956
aF1576184566.68223
aF1576184566.686833
aF1576184566.6913214
aF1576184566.695534
aF1576184566.6997526
aF1576184566.704181
aF1576184566.7088132
aF1576184566.7134216
aF1576184566.7180336
aF1576184566.7225833
aF1576184566.7275677
aF1576184566.7314992
aF1576184566.7356467
aF1576184566.7395897
aF1576184566.7436476
aF1576184566.7477307
aF1576184566.7518892
aF1576184566.756104
aF1576184566.7601514
aF1576184566.764236
aF1576184566.7685428
aF1576184566.772772
aF1576184566.7767298
aF1576184566.781092
aF1576184566.7851362
aF1576184566.7896705
aF1576184566.7937381
aF1576184566.7977653
aF1576184566.801848
aF1576184566.8058681
aF1576184566.809919
aF1576184566.8139746
aF1576184566.8179545
aF1576184566.8219764
aF1576184566.8263903
aF1576184566.8299763
aF1576184566.833974
aF1576184566.8380694
aF1576184566.8422663
aF1576184566.8464692
aF1576184566.8505032
aF1576184566.8548641
aF1576184566.8587756
aF1576184566.8627474
aF1576184566.86679
aF1576184566.8707469
aF1576184566.8749413
aF1576184566.87896
aF1576184566.883151
aF1576184566.8872528
aF1576184566.891454
aF1576184566.89546
aF1576184566.8994274
aF1576184566.9037898
aF1576184566.9077084
aF1576184566.911904
aF1576184566.9159353
aF1576184566.9200602
aF1576184566.9240067
aF1576184566.9281454
aF1576184566.9322588
aF1576184566.9363024
aF1576184566.940193
aF1576184566.9444265
aF1576184566.948476
aF1576184566.9528265
aF1576184566.9568498
aF1576184566.9609168
aF1576184566.9649427
aF1576184566.9689677
aF1576184566.9729538
aF1576184566.9769888
aF1576184566.9810848
aF1576184566.985238
aF1576184566.9894335
aF1576184566.9933994
aF1576184566.9973876
aF1576184567.0014708
aF1576184567.0054193
aF1576184567.0097568
aF1576184567.0139105
aF1576184567.0179558
aF1576184567.0220084
aF1576184567.0262086
aF1576184567.030155
aF1576184567.0361688
aF1576184567.0384316
aF1576184567.0424223
aF1576184567.0466485
aF1576184567.05061
aF1576184567.055997
aF1576184567.0591078
aF1576184567.06314
aF1576184567.067432
aF1576184567.0714166
aF1576184567.075564
aF1576184567.079574
aF1576184567.0835676
aF1576184567.087751
aF1576184567.0919156
aF1576184567.0961127
aF1576184567.1001136
aF1576184567.1041698
aF1576184567.10846
aF1576184567.1123886
aF1576184567.1166894
aF1576184567.1209457
aF1576184567.1250968
aF1576184567.1291676
aF1576184567.1331952
aF1576184567.1373143
aF1576184567.1412005
aF1576184567.145238
aF1576184567.1494424
aF1576184567.153465
aF1576184567.1574824
aF1576184567.1613712
aF1576184567.1655025
aF1576184567.1693957
aF1576184567.1734252
aF1576184567.177484
aF1576184567.1814466
aF1576184567.1854167
aF1576184567.1895585
aF1576184567.193591
aF1576184567.1976886
aF1576184567.2019193
aF1576184567.206142
aF1576184567.2101822
aF1576184567.214433
aF1576184567.2184489
aF1576184567.2227073
aF1576184567.2267094
aF1576184567.2307067
aF1576184567.2348037
aF1576184567.238963
aF1576184567.2431982
aF1576184567.2473888
aF1576184567.2514777
aF1576184567.2555249
aF1576184567.2594087
aF1576184567.2634327
aF1576184567.267436
aF1576184567.271418
aF1576184567.2754588
aF1576184567.2795496
aF1576184567.2835522
aF1576184567.2877092
aF1576184567.2916958
aF1576184567.2957768
aF1576184567.2997909
aF1576184567.303808
aF1576184567.307802
aF1576184567.3118632
aF1576184567.315815
aF1576184567.3198075
aF1576184567.3239143
aF1576184567.327922
aF1576184567.332206
aF1576184567.3360875
aF1576184567.3403935
aF1576184567.3444173
aF1576184567.3484817
aF1576184567.3524437
aF1576184567.3564906
aF1576184567.3606248
aF1576184567.36458
aF1576184567.3686974
aF1576184567.3726897
aF1576184567.3767745
aF1576184567.3808026
aF1576184567.3851268
aF1576184567.389171
aF1576184567.3937016
aF1576184567.3981066
aF1576184567.4027092
aF1576184567.4071088
aF1576184567.4115968
aF1576184567.4163616
aF1576184567.4203904
aF1576184567.424898
aF1576184567.429519
aF1576184567.4336183
aF1576184567.4381778
aF1576184567.4425926
aF1576184567.447226
aF1576184567.4516757
aF1576184567.4562454
aF1576184567.4607854
aF1576184567.465234
aF1576184567.469691
aF1576184567.4736035
aF1576184567.4776165
aF1576184567.4818287
aF1576184567.485799
aF1576184567.489792
aF1576184567.4939976
aF1576184567.4981306
aF1576184567.502492
aF1576184567.5065968
aF1576184567.5107155
aF1576184567.5146039
aF1576184567.5189583
aF1576184567.5230374
aF1576184567.5275388
aF1576184567.5314956
aF1576184567.5356886
aF1576184567.539765
aF1576184567.543789
aF1576184567.5479069
aF1576184567.5518746
aF1576184567.5563097
aF1576184567.5599093
aF1576184567.5639145
aF1576184567.5679698
aF1576184567.5721052
aF1576184567.5761373
aF1576184567.5805178
aF1576184567.5846055
aF1576184567.5887465
aF1576184567.5926616
aF1576184567.5966554
aF1576184567.6007473
aF1576184567.604812
aF1576184567.608798
aF1576184567.612772
aF1576184567.6168027
aF1576184567.620866
aF1576184567.6248512
aF1576184567.6291492
aF1576184567.6357236
aF1576184567.6375575
aF1576184567.6417243
aF1576184567.64577
aF1576184567.6497693
aF1576184567.6538093
aF1576184567.657899
aF1576184567.6619756
aF1576184567.6663868
aF1576184567.670428
aF1576184567.6744685
aF1576184567.678747
aF1576184567.6828043
aF1576184567.6867735
aF1576184567.690814
aF1576184567.6947913
aF1576184567.6988544
aF1576184567.7028627
aF1576184567.7069104
aF1576184567.7110066
aF1576184567.7152257
aF1576184567.7193706
aF1576184567.7234132
aF1576184567.727805
aF1576184567.73186
aF1576184567.7361948
aF1576184567.7398493
aF1576184567.7439406
aF1576184567.7479851
aF1576184567.7521238
aF1576184567.7564607
aF1576184567.7604063
aF1576184567.764607
aF1576184567.7689667
aF1576184567.773389
aF1576184567.777398
aF1576184567.782098
aF1576184567.7859821
aF1576184567.790125
aF1576184567.7940874
aF1576184567.7983763
aF1576184567.8023748
aF1576184567.8064196
aF1576184567.8104916
aF1576184567.8144093
aF1576184567.8186345
aF1576184567.8228662
aF1576184567.8269868
aF1576184567.8309817
aF1576184567.835159
aF1576184567.8391104
aF1576184567.843139
aF1576184567.8475466
aF1576184567.8514116
aF1576184567.8554974
aF1576184567.8595295
aF1576184567.8636458
aF1576184567.8678188
aF1576184567.872136
aF1576184567.8762736
aF1576184567.8805149
aF1576184567.8845098
aF1576184567.8886464
aF1576184567.8927314
aF1576184567.8971174
aF1576184567.901014
aF1576184567.9050965
aF1576184567.9093835
aF1576184567.9133816
aF1576184567.9173293
aF1576184567.9214184
aF1576184567.925449
aF1576184567.9295032
aF1576184567.933545
aF1576184567.9375615
aF1576184567.9414976
aF1576184567.9456542
aF1576184567.949637
aF1576184567.953705
aF1576184567.957868
aF1576184567.9621787
aF1576184567.9662046
aF1576184567.9703596
aF1576184567.9743154
aF1576184567.978576
aF1576184567.982659
aF1576184567.9867835
aF1576184567.9908583
aF1576184567.9951124
aF1576184567.9991255
aF1576184568.0031855
aF1576184568.0073962
aF1576184568.0113878
aF1576184568.0154111
aF1576184568.019413
aF1576184568.0233734
aF1576184568.0273592
aF1576184568.0314274
aF1576184568.0354636
aF1576184568.0396736
aF1576184568.0435884
aF1576184568.0476675
aF1576184568.0517547
aF1576184568.0557203
aF1576184568.0597348
aF1576184568.0637906
aF1576184568.067802
aF1576184568.0718548
aF1576184568.0759664
aF1576184568.0799766
aF1576184568.084227
aF1576184568.0883963
aF1576184568.092299
aF1576184568.0964544
aF1576184568.1003866
aF1576184568.1044295
aF1576184568.1084054
aF1576184568.1123974
aF1576184568.1164675
aF1576184568.120693
aF1576184568.1247616
aF1576184568.12901
aF1576184568.1336083
aF1576184568.1381052
aF1576184568.1427882
aF1576184568.1473243
aF1576184568.151791
aF1576184568.1564584
aF1576184568.1606064
aF1576184568.164882
aF1576184568.169406
aF1576184568.1737256
aF1576184568.1783261
aF1576184568.1875875
aF1576184568.1928818
aF1576184568.1929922
aF1576184568.1964014
aF1576184568.2005656
aF1576184568.2045498
aF1576184568.2086048
aF1576184568.212984
aF1576184568.2170975
aF1576184568.2214239
aF1576184568.2268953
aF1576184568.229665
aF1576184568.2335846
aF1576184568.2377872
aF1576184568.2419915
aF1576184568.2462714
aF1576184568.2504735
aF1576184568.2545698
aF1576184568.258506
aF1576184568.2624722
aF1576184568.2664616
aF1576184568.2705162
aF1576184568.2745833
aF1576184568.2785466
aF1576184568.2827504
aF1576184568.286716
aF1576184568.2907612
aF1576184568.2947817
aF1576184568.2987
aF1576184568.3028011
aF1576184568.3067133
aF1576184568.310983
aF1576184568.3151278
aF1576184568.3193681
aF1576184568.3234503
aF1576184568.3277237
aF1576184568.3316722
aF1576184568.3357766
aF1576184568.3398328
aF1576184568.3439407
aF1576184568.3479037
aF1576184568.3518896
aF1576184568.3558435
aF1576184568.35993
aF1576184568.3639882
aF1576184568.3681436
aF1576184568.3721035
aF1576184568.3764277
aF1576184568.3803995
aF1576184568.3846686
aF1576184568.3886952
aF1576184568.3927124
aF1576184568.3967109
aF1576184568.4007146
aF1576184568.404682
aF1576184568.4087558
aF1576184568.4127395
aF1576184568.4167855
aF1576184568.420961
aF1576184568.4249315
aF1576184568.428934
aF1576184568.4350262
aF1576184568.4372733
aF1576184568.4413178
aF1576184568.4453316
aF1576184568.4494753
aF1576184568.4538214
aF1576184568.4576979
aF1576184568.4618044
aF1576184568.4658713
aF1576184568.4698431
aF1576184568.4737813
aF1576184568.4778478
aF1576184568.4818816
aF1576184568.485815
aF1576184568.4899247
aF1576184568.4939318
aF1576184568.497981
aF1576184568.5023024
aF1576184568.5062876
aF1576184568.5101342
aF1576184568.5141873
aF1576184568.5181317
aF1576184568.522488
aF1576184568.5264482
aF1576184568.5305948
aF1576184568.5351446
aF1576184568.5389082
aF1576184568.542924
aF1576184568.5471072
aF1576184568.551151
aF1576184568.5551274
aF1576184568.5591125
aF1576184568.5631022
aF1576184568.5671003
aF1576184568.571256
aF1576184568.5754921
aF1576184568.5794241
aF1576184568.5835621
aF1576184568.5875885
aF1576184568.5919337
aF1576184568.596337
aF1576184568.6003203
aF1576184568.6042943
aF1576184568.60844
aF1576184568.6124237
aF1576184568.616561
aF1576184568.6206417
aF1576184568.6250384
aF1576184568.6289265
aF1576184568.6363544
aF1576184568.6371672
aF1576184568.6411026
aF1576184568.6451113
aF1576184568.6491401
aF1576184568.6531405
aF1576184568.6572857
aF1576184568.6613157
aF1576184568.665327
aF1576184568.6693003
aF1576184568.673308
aF1576184568.6774452
aF1576184568.6814232
aF1576184568.6855555
aF1576184568.6897032
aF1576184568.6938195
aF1576184568.6981525
aF1576184568.7022402
aF1576184568.7065516
aF1576184568.7103112
aF1576184568.714333
aF1576184568.7184112
aF1576184568.722466
aF1576184568.7265813
aF1576184568.7304537
aF1576184568.7348201
aF1576184568.7384515
aF1576184568.7424266
aF1576184568.7467358
aF1576184568.7505918
aF1576184568.7546558
aF1576184568.7588115
aF1576184568.7629304
aF1576184568.76717
aF1576184568.7712457
aF1576184568.77535
aF1576184568.7793355
aF1576184568.7832258
aF1576184568.787447
aF1576184568.791524
aF1576184568.7957797
aF1576184568.799651
aF1576184568.8036768
aF1576184568.8077826
aF1576184568.8118112
aF1576184568.8157878
aF1576184568.8198001
aF1576184568.8237982
aF1576184568.8278875
aF1576184568.8349345
aF1576184568.8368044
aF1576184568.8402948
aF1576184568.844284
aF1576184568.848348
aF1576184568.8524446
aF1576184568.8566294
aF1576184568.8608115
aF1576184568.8653948
aF1576184568.8700037
aF1576184568.874414
aF1576184568.8789065
aF1576184568.883473
aF1576184568.8879764
aF1576184568.8926697
aF1576184568.8974028
aF1576184568.9014006
aF1576184568.90549
aF1576184568.910028
aF1576184568.9144557
aF1576184568.9192784
aF1576184568.9237666
aF1576184568.9284408
aF1576184568.936427
aF1576184568.9372182
aF1576184568.9414008
aF1576184568.945413
aF1576184568.949523
aF1576184568.9535043
aF1576184568.9578018
aF1576184568.9617515
aF1576184568.9659598
aF1576184568.9704642
aF1576184568.974479
aF1576184568.978531
aF1576184568.9824846
aF1576184568.9866354
aF1576184568.9906092
aF1576184568.9947517
aF1576184568.9988205
aF1576184569.0028281
aF1576184569.0068672
aF1576184569.0109704
aF1576184569.0150828
aF1576184569.0192332
aF1576184569.0235102
aF1576184569.0275
aF1576184569.031474
aF1576184569.0355365
aF1576184569.0396452
aF1576184569.0434837
aF1576184569.047826
aF1576184569.051807
aF1576184569.0558097
aF1576184569.0597584
aF1576184569.0637577
aF1576184569.067883
aF1576184569.0718794
aF1576184569.0762472
aF1576184569.0804856
aF1576184569.0846002
aF1576184569.0886748
aF1576184569.0926895
aF1576184569.096778
aF1576184569.100771
aF1576184569.1047397
aF1576184569.108778
aF1576184569.1128092
aF1576184569.1167998
aF1576184569.1208005
aF1576184569.1248443
aF1576184569.1288593
aF1576184569.1330674
aF1576184569.137113
aF1576184569.1412995
aF1576184569.1452603
aF1576184569.1497128
aF1576184569.1538289
aF1576184569.157744
aF1576184569.1617644
aF1576184569.165764
aF1576184569.1697986
aF1576184569.1737738
aF1576184569.1780066
aF1576184569.1820521
aF1576184569.18629
aF1576184569.190442
aF1576184569.1947656
aF1576184569.1987069
aF1576184569.202604
aF1576184569.2067623
aF1576184569.2107933
aF1576184569.2147849
aF1576184569.2189097
aF1576184569.2229927
aF1576184569.227002
aF1576184569.2312675
aF1576184569.2352405
aF1576184569.2394087
aF1576184569.2435012
aF1576184569.2478049
aF1576184569.2518146
aF1576184569.2558804
aF1576184569.2599945
aF1576184569.2640047
aF1576184569.2682035
aF1576184569.2722309
aF1576184569.276256
aF1576184569.2802496
aF1576184569.2844357
aF1576184569.2884398
aF1576184569.2925305
aF1576184569.2967153
aF1576184569.3009956
aF1576184569.3049817
aF1576184569.3090544
aF1576184569.3129873
aF1576184569.3170066
aF1576184569.3213391
aF1576184569.325192
aF1576184569.3295178
aF1576184569.333756
aF1576184569.3378737
aF1576184569.3420186
aF1576184569.345998
aF1576184569.3501906
aF1576184569.3542595
aF1576184569.3583841
aF1576184569.3623877
aF1576184569.3664832
aF1576184569.3706684
aF1576184569.3749886
aF1576184569.3788955
aF1576184569.3829737
aF1576184569.3872013
aF1576184569.391355
aF1576184569.3951778
aF1576184569.399326
aF1576184569.4032464
aF1576184569.4073548
aF1576184569.4118416
aF1576184569.4160087
aF1576184569.420263
aF1576184569.424303
aF1576184569.4282749
aF1576184569.435611
aF1576184569.436504
aF1576184569.4404647
aF1576184569.4444966
aF1576184569.4486642
aF1576184569.4527779
aF1576184569.4570642
aF1576184569.4610686
aF1576184569.4651325
aF1576184569.4691856
aF1576184569.4732573
aF1576184569.4771802
aF1576184569.4814258
aF1576184569.4853866
aF1576184569.4894195
aF1576184569.4933379
aF1576184569.4973702
aF1576184569.501517
aF1576184569.5054936
aF1576184569.5096126
aF1576184569.5135794
aF1576184569.5177186
aF1576184569.52179
aF1576184569.5276315
aF1576184569.5301235
aF1576184569.5345051
aF1576184569.5383208
aF1576184569.5423155
aF1576184569.5462224
aF1576184569.5504868
aF1576184569.5546663
aF1576184569.5583253
aF1576184569.562377
aF1576184569.56635
aF1576184569.5704098
aF1576184569.574399
aF1576184569.5784004
aF1576184569.5822976
aF1576184569.5864027
aF1576184569.5905926
aF1576184569.5948462
aF1576184569.5992327
aF1576184569.6036978
aF1576184569.608432
aF1576184569.6126938
aF1576184569.6173306
aF1576184569.6215055
aF1576184569.6258006
aF1576184569.630328
aF1576184569.6347587
aF1576184569.63899
aF1576184569.6435974
aF1576184569.6480138
aF1576184569.6525245
aF1576184569.6569428
aF1576184569.6614156
aF1576184569.6662025
aF1576184569.6703765
aF1576184569.6743221
aF1576184569.6784835
aF1576184569.6825774
aF1576184569.6866703
aF1576184569.690825
aF1576184569.694915
aF1576184569.699381
aF1576184569.7032402
aF1576184569.7074552
aF1576184569.7115335
aF1576184569.715777
aF1576184569.7198095
aF1576184569.7239702
aF1576184569.728595
aF1576184569.7359028
aF1576184569.73642
aF1576184569.74047
aF1576184569.7444232
aF1576184569.7487023
aF1576184569.7524438
aF1576184569.7565343
aF1576184569.7604382
aF1576184569.7645562
aF1576184569.7684958
aF1576184569.7725601
aF1576184569.7766495
aF1576184569.7808385
aF1576184569.7848682
aF1576184569.7889736
aF1576184569.7929537
aF1576184569.7969327
aF1576184569.8009877
aF1576184569.8050387
aF1576184569.809167
aF1576184569.8135052
aF1576184569.8174596
aF1576184569.8215606
aF1576184569.8255887
aF1576184569.8295631
aF1576184569.8337047
aF1576184569.8377182
aF1576184569.8417501
aF1576184569.8457248
aF1576184569.8498282
aF1576184569.8537304
aF1576184569.8577058
aF1576184569.8616862
aF1576184569.8657837
aF1576184569.8699546
aF1576184569.8739421
aF1576184569.8782876
aF1576184569.882178
aF1576184569.8865395
aF1576184569.890588
aF1576184569.8946874
aF1576184569.898719
aF1576184569.9028041
aF1576184569.9068625
aF1576184569.9107988
aF1576184569.9149175
aF1576184569.9189897
aF1576184569.9229672
aF1576184569.9269652
aF1576184569.9309754
aF1576184569.935286
aF1576184569.939212
aF1576184569.943234
aF1576184569.9473572
aF1576184569.9518943
aF1576184569.9556143
aF1576184569.9599338
aF1576184569.9639175
aF1576184569.9683213
aF1576184569.9724488
aF1576184569.9768205
aF1576184569.980922
aF1576184569.9848084
aF1576184569.9889386
aF1576184569.993021
aF1576184569.9969745
aF1576184570.0009854
aF1576184570.005212
aF1576184570.0091052
aF1576184570.0132701
aF1576184570.017183
aF1576184570.0213141
aF1576184570.0251913
aF1576184570.0292478
aF1576184570.0334241
aF1576184570.037483
aF1576184570.0418074
aF1576184570.0458481
aF1576184570.0498352
aF1576184570.053943
aF1576184570.058316
aF1576184570.0623026
aF1576184570.0668838
aF1576184570.0709186
aF1576184570.0748816
aF1576184570.0791469
aF1576184570.0832553
aF1576184570.0871775
aF1576184570.0913286
aF1576184570.0951724
aF1576184570.0992463
aF1576184570.103185
aF1576184570.1072023
aF1576184570.111256
aF1576184570.1151597
aF1576184570.1192439
aF1576184570.123186
aF1576184570.1271935
aF1576184570.1312623
aF1576184570.1354775
aF1576184570.148749
aF1576184570.1487513
aF1576184570.1487725
aF1576184570.1517146
aF1576184570.1564543
aF1576184570.160138
aF1576184570.1643615
aF1576184570.1685839
aF1576184570.1729913
aF1576184570.1771412
aF1576184570.1811814
aF1576184570.1851447
aF1576184570.189176
aF1576184570.1932158
aF1576184570.1972396
aF1576184570.2013087
aF1576184570.2052042
aF1576184570.2093406
aF1576184570.213138
aF1576184570.2173755
aF1576184570.2214246
aF1576184570.225572
aF1576184570.229469
aF1576184570.2435725
aF1576184570.2435756
aF1576184570.2435873
aF1576184570.245461
aF1576184570.249617
aF1576184570.2535672
aF1576184570.2577772
aF1576184570.2616973
aF1576184570.2658026
aF1576184570.2700455
aF1576184570.2741318
aF1576184570.278142
aF1576184570.2821097
aF1576184570.286159
aF1576184570.2901237
aF1576184570.2941718
aF1576184570.298169
aF1576184570.3021169
aF1576184570.3061347
aF1576184570.3102546
aF1576184570.3142264
aF1576184570.3183055
aF1576184570.32224
aF1576184570.326288
aF1576184570.3302665
aF1576184570.3346524
aF1576184570.3387978
aF1576184570.3434064
aF1576184570.3479688
aF1576184570.3525317
aF1576184570.3571098
aF1576184570.3615043
aF1576184570.366235
aF1576184570.370376
aF1576184570.37423
aF1576184570.378752
aF1576184570.3832345
aF1576184570.3874178
aF1576184570.3919103
aF1576184570.3965225
aF1576184570.4011743
aF1576184570.405285
aF1576184570.409282
aF1576184570.4133074
aF1576184570.4173286
aF1576184570.4213974
aF1576184570.4252815
aF1576184570.4292853
aF1576184570.4374492
aF1576184570.437453
aF1576184570.4412775
aF1576184570.445264
aF1576184570.449284
aF1576184570.4533265
aF1576184570.4572692
aF1576184570.4612684
aF1576184570.4652488
aF1576184570.469268
aF1576184570.4732444
aF1576184570.4772615
aF1576184570.4813464
aF1576184570.4854224
aF1576184570.489507
aF1576184570.4933355
aF1576184570.497454
aF1576184570.5014312
aF1576184570.5054288
aF1576184570.5095508
aF1576184570.5134306
aF1576184570.5174203
aF1576184570.5214653
aF1576184570.525476
aF1576184570.5293858
aF1576184570.5342877
aF1576184570.537404
aF1576184570.5413747
aF1576184570.5454276
aF1576184570.5509598
aF1576184570.5534112
aF1576184570.557412
aF1576184570.5614324
aF1576184570.5654218
aF1576184570.569427
aF1576184570.5734599
aF1576184570.5774705
aF1576184570.581438
aF1576184570.5854714
aF1576184570.5895176
aF1576184570.593541
aF1576184570.597662
aF1576184570.6015244
aF1576184570.6056814
aF1576184570.60953
aF1576184570.6135411
aF1576184570.6176438
aF1576184570.621511
aF1576184570.6258159
aF1576184570.6295218
aF1576184570.6348808
aF1576184570.6375513
aF1576184570.6415377
aF1576184570.645551
aF1576184570.6495218
aF1576184570.6535537
aF1576184570.65761
aF1576184570.6614766
aF1576184570.6656387
aF1576184570.6695318
aF1576184570.6735094
aF1576184570.677618
aF1576184570.681552
aF1576184570.6855898
aF1576184570.6896727
aF1576184570.6936269
aF1576184570.6976645
aF1576184570.7016728
aF1576184570.7056472
aF1576184570.709677
aF1576184570.7136528
aF1576184570.717698
aF1576184570.7216103
aF1576184570.72565
aF1576184570.7297125
aF1576184570.7335763
aF1576184570.7378483
aF1576184570.741903
aF1576184570.7459147
aF1576184570.749918
aF1576184570.7538981
aF1576184570.7578938
aF1576184570.7618856
aF1576184570.7660427
aF1576184570.7698734
aF1576184570.773947
aF1576184570.7778323
aF1576184570.7821293
aF1576184570.7861478
aF1576184570.7901433
aF1576184570.7940726
aF1576184570.798129
aF1576184570.8021345
aF1576184570.80629
aF1576184570.810179
aF1576184570.8141625
aF1576184570.818158
aF1576184570.8221688
aF1576184570.826154
aF1576184570.8301265
aF1576184570.8359547
aF1576184570.8386843
aF1576184570.8421397
aF1576184570.8462381
aF1576184570.850149
aF1576184570.8541415
aF1576184570.8581367
aF1576184570.8622613
aF1576184570.8661518
aF1576184570.870124
aF1576184570.8742337
aF1576184570.878122
aF1576184570.8821876
aF1576184570.8861818
aF1576184570.8901348
aF1576184570.8942373
aF1576184570.898107
aF1576184570.9021084
aF1576184570.906319
aF1576184570.9101017
aF1576184570.9141157
aF1576184570.9181387
aF1576184570.9222176
aF1576184570.9261153
aF1576184570.9301362
aF1576184570.934126
aF1576184570.938196
aF1576184570.942169
aF1576184570.9461625
aF1576184570.950202
aF1576184570.9541445
aF1576184570.9581575
aF1576184570.962166
aF1576184570.9661274
aF1576184570.9701083
aF1576184570.974162
aF1576184570.9781299
aF1576184570.9821327
aF1576184570.9861422
aF1576184570.990137
aF1576184570.994113
aF1576184570.998193
aF1576184571.0021448
aF1576184571.0062048
aF1576184571.010173
aF1576184571.014123
aF1576184571.0182033
aF1576184571.0221384
aF1576184571.026329
aF1576184571.0301945
aF1576184571.034187
aF1576184571.0381343
aF1576184571.0421948
aF1576184571.046169
aF1576184571.0501301
aF1576184571.054194
aF1576184571.0581367
aF1576184571.062167
aF1576184571.06671
aF1576184571.0702016
aF1576184571.0747418
aF1576184571.07956
aF1576184571.0838642
aF1576184571.088445
aF1576184571.0928462
aF1576184571.0974505
aF1576184571.101806
aF1576184571.1064506
aF1576184571.1111364
aF1576184571.1155198
aF1576184571.1198437
aF1576184571.1244204
aF1576184571.1291373
aF1576184571.1335561
aF1576184571.1382842
aF1576184571.1427195
aF1576184571.1534371
aF1576184571.160206
aF1576184571.1602418
aF1576184571.1602547
aF1576184571.1631804
aF1576184571.1672237
aF1576184571.1711931
aF1576184571.1752057
aF1576184571.1793168
aF1576184571.1833496
aF1576184571.1873498
aF1576184571.1913605
aF1576184571.1953645
aF1576184571.1993926
aF1576184571.203313
aF1576184571.207362
aF1576184571.2113264
aF1576184571.2153032
aF1576184571.2193286
aF1576184571.2233894
aF1576184571.2273388
aF1576184571.2313416
aF1576184571.2353456
aF1576184571.2394025
aF1576184571.2433784
aF1576184571.2473648
aF1576184571.2513692
aF1576184571.255328
aF1576184571.259357
aF1576184571.263415
aF1576184571.2676034
aF1576184571.2717109
aF1576184571.2758553
aF1576184571.2798948
aF1576184571.2840512
aF1576184571.2883365
aF1576184571.2923682
aF1576184571.2963347
aF1576184571.3004851
aF1576184571.304434
aF1576184571.3084772
aF1576184571.3124373
aF1576184571.3164542
aF1576184571.3205645
aF1576184571.3246062
aF1576184571.3285773
aF1576184571.3326466
aF1576184571.3365884
aF1576184571.34063
aF1576184571.3447309
aF1576184571.348844
aF1576184571.3528538
aF1576184571.357066
aF1576184571.3613634
aF1576184571.3654337
aF1576184571.3695858
aF1576184571.3736622
aF1576184571.3777611
aF1576184571.3818243
aF1576184571.3857925
aF1576184571.389909
aF1576184571.3938205
aF1576184571.3977978
aF1576184571.4018247
aF1576184571.4058764
aF1576184571.4098125
aF1576184571.4138243
aF1576184571.418006
aF1576184571.4220498
aF1576184571.4261966
aF1576184571.4303188
aF1576184571.4346492
aF1576184571.4386377
aF1576184571.4427385
aF1576184571.4466972
aF1576184571.4507296
aF1576184571.4548464
aF1576184571.458838
aF1576184571.4628074
aF1576184571.466807
aF1576184571.4711113
aF1576184571.475134
aF1576184571.4791973
aF1576184571.483281
aF1576184571.4876537
aF1576184571.49174
aF1576184571.4958184
aF1576184571.4998202
aF1576184571.5038452
aF1576184571.508017
aF1576184571.5121334
aF1576184571.5160885
aF1576184571.5200026
aF1576184571.5241501
aF1576184571.528015
aF1576184571.532134
aF1576184571.536279
aF1576184571.5404525
aF1576184571.5445108
aF1576184571.5487792
aF1576184571.5527112
aF1576184571.556661
aF1576184571.56089
aF1576184571.5648816
aF1576184571.5688543
aF1576184571.5728192
aF1576184571.576822
aF1576184571.5810637
aF1576184571.5850298
aF1576184571.5888517
aF1576184571.5928066
aF1576184571.5968058
aF1576184571.60094
aF1576184571.6048083
aF1576184571.6090224
aF1576184571.6131253
aF1576184571.6170702
aF1576184571.6211977
aF1576184571.6251943
aF1576184571.6292253
aF1576184571.6333005
aF1576184571.6374555
aF1576184571.641804
aF1576184571.645846
aF1576184571.650155
aF1576184571.6540356
aF1576184571.6581254
aF1576184571.661994
aF1576184571.6664941
aF1576184571.6701179
aF1576184571.674153
aF1576184571.6783137
aF1576184571.6822813
aF1576184571.6862745
aF1576184571.6902585
aF1576184571.6942513
aF1576184571.6984274
aF1576184571.7024522
aF1576184571.7065566
aF1576184571.7105784
aF1576184571.7146447
aF1576184571.7188296
aF1576184571.7230036
aF1576184571.7271574
aF1576184571.731132
aF1576184571.735103
aF1576184571.7391434
aF1576184571.7430522
aF1576184571.7471385
aF1576184571.7511299
aF1576184571.7550716
aF1576184571.7589867
aF1576184571.7631207
aF1576184571.767027
aF1576184571.7710521
aF1576184571.7752707
aF1576184571.7791257
aF1576184571.7832127
aF1576184571.7871344
aF1576184571.7911456
aF1576184571.795559
aF1576184571.799532
aF1576184571.8039675
aF1576184571.8085465
aF1576184571.8131242
aF1576184571.8177059
aF1576184571.8222656
aF1576184571.82682
aF1576184571.8310254
aF1576184571.8354156
aF1576184571.8396916
aF1576184571.8441741
aF1576184571.8482814
aF1576184571.853022
aF1576184571.8572643
aF1576184571.861747
aF1576184571.8663962
aF1576184571.8711622
aF1576184571.8753998
aF1576184571.8794088
aF1576184571.883532
aF1576184571.8875418
aF1576184571.89152
aF1576184571.8956525
aF1576184571.8996918
aF1576184571.9041424
aF1576184571.9083235
aF1576184571.9126773
aF1576184571.9167204
aF1576184571.9213133
aF1576184571.9252949
aF1576184571.9294002
aF1576184571.9334579
aF1576184571.9375489
aF1576184571.9414074
aF1576184571.9454482
aF1576184571.9495597
aF1576184571.9537868
aF1576184571.957739
aF1576184571.961766
aF1576184571.9662654
aF1576184571.970191
aF1576184571.9742928
aF1576184571.9782858
aF1576184571.9821937
aF1576184571.9863005
aF1576184571.9903693
aF1576184571.9945323
aF1576184571.998505
aF1576184572.002676
aF1576184572.0068004
aF1576184572.0107698
aF1576184572.0147605
aF1576184572.019398
aF1576184572.0234478
aF1576184572.0275257
aF1576184572.0316408
aF1576184572.035641
aF1576184572.0398984
aF1576184572.0437286
aF1576184572.0480278
aF1576184572.0520236
aF1576184572.0563438
aF1576184572.059978
aF1576184572.064417
aF1576184572.0684571
aF1576184572.0724685
aF1576184572.0764256
aF1576184572.080425
aF1576184572.084666
aF1576184572.0888293
aF1576184572.0930207
aF1576184572.0971613
aF1576184572.1013904
aF1576184572.1054113
aF1576184572.1094146
aF1576184572.1134255
aF1576184572.1174903
aF1576184572.1215403
aF1576184572.12565
aF1576184572.1296241
aF1576184572.1337304
aF1576184572.1378388
aF1576184572.141764
aF1576184572.1457858
aF1576184572.1498313
aF1576184572.1537948
aF1576184572.1577456
aF1576184572.161999
aF1576184572.166062
aF1576184572.1701465
aF1576184572.17449
aF1576184572.1786816
aF1576184572.1826022
aF1576184572.1866078
aF1576184572.1906579
aF1576184572.194783
aF1576184572.1987698
aF1576184572.2029386
aF1576184572.2071595
aF1576184572.2112823
aF1576184572.2156725
aF1576184572.2195258
aF1576184572.2235587
aF1576184572.2275794
aF1576184572.231583
aF1576184572.2356136
aF1576184572.2397063
aF1576184572.243784
aF1576184572.2479956
aF1576184572.2520058
aF1576184572.2563868
aF1576184572.2600024
aF1576184572.264006
aF1576184572.2679725
aF1576184572.2721248
aF1576184572.2761364
aF1576184572.2802484
aF1576184572.2843187
aF1576184572.288626
aF1576184572.292598
aF1576184572.2967105
aF1576184572.300601
aF1576184572.3046799
aF1576184572.3087866
aF1576184572.312702
aF1576184572.3167276
aF1576184572.3207867
aF1576184572.3247657
aF1576184572.3287911
aF1576184572.332819
aF1576184572.3367262
aF1576184572.3407893
aF1576184572.3450122
aF1576184572.3489745
aF1576184572.3533103
aF1576184572.3571935
aF1576184572.3614223
aF1576184572.365457
aF1576184572.369949
aF1576184572.3739684
aF1576184572.377903
aF1576184572.3821309
aF1576184572.3862138
aF1576184572.3902016
aF1576184572.3943262
aF1576184572.3983574
aF1576184572.4024756
aF1576184572.4067602
aF1576184572.41082
aF1576184572.4147675
aF1576184572.418773
aF1576184572.4227622
aF1576184572.4273608
aF1576184572.4310699
aF1576184572.435147
aF1576184572.4392383
aF1576184572.443151
aF1576184572.4474225
aF1576184572.4513254
aF1576184572.4551306
aF1576184572.4591806
aF1576184572.4631424
aF1576184572.467204
aF1576184572.4711428
aF1576184572.4751606
aF1576184572.4791644
aF1576184572.4831555
aF1576184572.487143
aF1576184572.491165
aF1576184572.4952085
aF1576184572.4992664
aF1576184572.5031698
aF1576184572.5072436
aF1576184572.5113342
aF1576184572.515336
aF1576184572.5193367
aF1576184572.523391
aF1576184572.527381
aF1576184572.531589
aF1576184572.5355887
aF1576184572.5399435
aF1576184572.5443685
aF1576184572.5488334
aF1576184572.5532305
aF1576184572.5577717
aF1576184572.5623524
aF1576184572.5665538
aF1576184572.5713525
aF1576184572.5754318
aF1576184572.5801778
aF1576184572.5841467
aF1576184572.5884652
aF1576184572.593225
aF1576184572.5979743
aF1576184572.6024284
aF1576184572.6071546
aF1576184572.6114256
aF1576184572.6155791
aF1576184572.6195836
aF1576184572.624112
aF1576184572.6281493
aF1576184572.6390357
aF1576184572.6390438
aF1576184572.6402934
aF1576184572.6443095
aF1576184572.648233
aF1576184572.6524053
aF1576184572.6564007
aF1576184572.6605527
aF1576184572.6645648
aF1576184572.6692066
aF1576184572.6731262
aF1576184572.6772356
aF1576184572.6812038
aF1576184572.685202
aF1576184572.6892955
aF1576184572.6932325
aF1576184572.6972935
aF1576184572.7012815
aF1576184572.7053962
aF1576184572.7094307
aF1576184572.7133367
aF1576184572.7173598
aF1576184572.721356
aF1576184572.7253888
aF1576184572.7298203
aF1576184572.7348554
aF1576184572.7374973
aF1576184572.7416463
aF1576184572.7456315
aF1576184572.7500856
aF1576184572.7539847
aF1576184572.758208
aF1576184572.7623897
aF1576184572.76613
aF1576184572.7702155
aF1576184572.7743485
aF1576184572.7781894
aF1576184572.7823243
aF1576184572.7863474
aF1576184572.7903264
aF1576184572.794441
aF1576184572.7984455
aF1576184572.802434
aF1576184572.8065379
aF1576184572.810589
aF1576184572.8147783
aF1576184572.819091
aF1576184572.8230534
aF1576184572.8269632
aF1576184572.8313622
aF1576184572.8354201
aF1576184572.839384
aF1576184572.8433614
aF1576184572.8475418
aF1576184572.8515065
aF1576184572.855663
aF1576184572.8595998
aF1576184572.8636389
aF1576184572.86758
aF1576184572.871624
aF1576184572.8756902
aF1576184572.8798678
aF1576184572.883951
aF1576184572.8879476
aF1576184572.8919466
aF1576184572.8960295
aF1576184572.9001753
aF1576184572.9042356
aF1576184572.9085226
aF1576184572.912536
aF1576184572.9166448
aF1576184572.9207516
aF1576184572.9246774
aF1576184572.928903
aF1576184572.936402
aF1576184572.936982
aF1576184572.9409056
aF1576184572.9450011
aF1576184572.9491293
aF1576184572.953255
aF1576184572.9574614
aF1576184572.9615
aF1576184572.965474
aF1576184572.9694743
aF1576184572.973483
aF1576184572.977564
aF1576184572.9816146
aF1576184572.98552
aF1576184572.989601
aF1576184572.9936824
aF1576184572.9977167
aF1576184573.0020063
aF1576184573.0063975
aF1576184573.0102584
aF1576184573.0145242
aF1576184573.0186453
aF1576184573.0227125
aF1576184573.0266807
aF1576184573.030947
aF1576184573.034988
aF1576184573.0389297
aF1576184573.043033
aF1576184573.0472624
aF1576184573.051344
aF1576184573.0555594
aF1576184573.0595777
aF1576184573.0636888
aF1576184573.0679607
aF1576184573.072047
aF1576184573.0759094
aF1576184573.0799673
aF1576184573.083919
aF1576184573.0879567
aF1576184573.0918837
aF1576184573.0959005
aF1576184573.099967
aF1576184573.1065698
aF1576184573.1083083
aF1576184573.112482
aF1576184573.117008
aF1576184573.1209095
aF1576184573.1249352
aF1576184573.1289873
aF1576184573.1330945
aF1576184573.1370246
aF1576184573.141094
aF1576184573.1450682
aF1576184573.1489966
aF1576184573.1532366
aF1576184573.157063
aF1576184573.1611102
aF1576184573.1651292
aF1576184573.1691034
aF1576184573.173163
aF1576184573.1772804
aF1576184573.181162
aF1576184573.1851301
aF1576184573.1891396
aF1576184573.1931527
aF1576184573.197385
aF1576184573.2014174
aF1576184573.2054942
aF1576184573.2095492
aF1576184573.2138255
aF1576184573.2179816
aF1576184573.2218926
aF1576184573.2260456
aF1576184573.2299123
aF1576184573.235122
aF1576184573.2379756
aF1576184573.2419908
aF1576184573.2460904
aF1576184573.250206
aF1576184573.2540705
aF1576184573.2580934
aF1576184573.2620263
aF1576184573.2662375
aF1576184573.2702868
aF1576184573.2742949
aF1576184573.2786293
aF1576184573.2831473
aF1576184573.287636
aF1576184573.292316
aF1576184573.296907
aF1576184573.3014247
aF1576184573.3058846
aF1576184573.3101466
aF1576184573.314424
aF1576184573.3186755
aF1576184573.3231726
aF1576184573.327671
aF1576184573.3321624
aF1576184573.3370717
aF1576184573.3412986
aF1576184573.3465242
aF1576184573.3501883
aF1576184573.3544385
aF1576184573.3585236
aF1576184573.363011
aF1576184573.367076
aF1576184573.3712063
aF1576184573.3750002
aF1576184573.3792622
aF1576184573.3832645
aF1576184573.3874226
aF1576184573.3914454
aF1576184573.395551
aF1576184573.3996222
aF1576184573.4041457
aF1576184573.4082854
aF1576184573.4124544
aF1576184573.4164562
aF1576184573.4204187
aF1576184573.4244874
aF1576184573.428443
aF1576184573.4357214
aF1576184573.4364727
aF1576184573.440564
aF1576184573.444827
aF1576184573.449172
aF1576184573.4532955
aF1576184573.4572918
aF1576184573.4614015
aF1576184573.465417
aF1576184573.4698606
aF1576184573.4738936
aF1576184573.4781513
aF1576184573.4821408
aF1576184573.4865124
aF1576184573.4901214
aF1576184573.4941895
aF1576184573.4983013
aF1576184573.502295
aF1576184573.5064523
aF1576184573.5104568
aF1576184573.5144105
aF1576184573.5183878
aF1576184573.5223916
aF1576184573.526409
aF1576184573.5305097
aF1576184573.536318
aF1576184573.538566
aF1576184573.5428486
aF1576184573.5469878
aF1576184573.5512998
aF1576184573.5554538
aF1576184573.5596519
aF1576184573.5638523
aF1576184573.5680559
aF1576184573.5722847
aF1576184573.5764732
aF1576184573.5804267
aF1576184573.5844123
aF1576184573.588552
aF1576184573.592693
aF1576184573.5969334
aF1576184573.600959
aF1576184573.6050048
aF1576184573.6090305
aF1576184573.613345
aF1576184573.617266
aF1576184573.6213472
aF1576184573.6252785
aF1576184573.629458
aF1576184573.6333697
aF1576184573.637416
aF1576184573.6414726
aF1576184573.6455956
aF1576184573.6498435
aF1576184573.6538868
aF1576184573.6582212
aF1576184573.6624327
aF1576184573.6664927
aF1576184573.6705065
aF1576184573.6745327
aF1576184573.6785066
aF1576184573.6826882
aF1576184573.6868954
aF1576184573.6910107
aF1576184573.6951365
aF1576184573.6996143
aF1576184573.7034469
aF1576184573.7075841
aF1576184573.7114797
aF1576184573.7154598
aF1576184573.7194846
aF1576184573.7235029
aF1576184573.7292237
aF1576184573.7315757
aF1576184573.7373462
aF1576184573.7396212
aF1576184573.743587
aF1576184573.7478917
aF1576184573.7519116
aF1576184573.7559516
aF1576184573.7601159
aF1576184573.7642817
aF1576184573.768499
aF1576184573.7726262
aF1576184573.7766345
aF1576184573.7806432
aF1576184573.784661
aF1576184573.7888114
aF1576184573.792831
aF1576184573.7968416
aF1576184573.8008914
aF1576184573.8048818
aF1576184573.8089175
aF1576184573.812911
aF1576184573.8169034
aF1576184573.8210099
aF1576184573.8250008
aF1576184573.8291204
aF1576184573.8333473
aF1576184573.837264
aF1576184573.8414252
aF1576184573.8456364
aF1576184573.8498394
aF1576184573.8539252
aF1576184573.857829
aF1576184573.861788
aF1576184573.8663201
aF1576184573.869981
aF1576184573.8741388
aF1576184573.878179
aF1576184573.8821523
aF1576184573.8862684
aF1576184573.8901477
aF1576184573.8941665
aF1576184573.8981938
aF1576184573.9023674
aF1576184573.90642
aF1576184573.910658
aF1576184573.9146588
aF1576184573.9188755
aF1576184573.9228275
aF1576184573.926848
aF1576184573.9308398
aF1576184573.9370303
aF1576184573.9390428
aF1576184573.9430156
aF1576184573.9469974
aF1576184573.9510064
aF1576184573.9549687
aF1576184573.9589999
aF1576184573.9629753
aF1576184573.9671504
aF1576184573.97185
aF1576184573.9751878
aF1576184573.9793382
aF1576184573.9833493
aF1576184573.9874988
aF1576184573.9918566
aF1576184573.995866
aF1576184573.9999537
aF1576184574.0038416
aF1576184574.0081384
aF1576184574.012204
aF1576184574.0164752
aF1576184574.0211575
aF1576184574.0256207
aF1576184574.0302212
aF1576184574.0349338
aF1576184574.0394008
aF1576184574.0441194
aF1576184574.0479367
aF1576184574.052152
aF1576184574.0562503
aF1576184574.0606322
aF1576184574.0653317
aF1576184574.07017
aF1576184574.0745158
aF1576184574.079148
aF1576184574.083417
aF1576184574.087998
aF1576184574.0921974
aF1576184574.0962086
aF1576184574.1006088
aF1576184574.1051474
aF1576184574.1091063
aF1576184574.113201
aF1576184574.1172335
aF1576184574.1211953
aF1576184574.125444
aF1576184574.1294425
aF1576184574.1335864
aF1576184574.1380177
aF1576184574.1419752
aF1576184574.1461594
aF1576184574.150053
aF1576184574.1541781
aF1576184574.158043
aF1576184574.16209
aF1576184574.1663804
aF1576184574.1701193
aF1576184574.1740634
aF1576184574.17814
aF1576184574.182165
aF1576184574.1861763
aF1576184574.190093
aF1576184574.1941614
aF1576184574.1982374
aF1576184574.2023823
aF1576184574.206791
aF1576184574.2108798
aF1576184574.2151995
aF1576184574.2191496
aF1576184574.2233343
aF1576184574.2273722
aF1576184574.231526
aF1576184574.235364
aF1576184574.2394342
aF1576184574.2436697
aF1576184574.247616
aF1576184574.2516239
aF1576184574.255817
aF1576184574.259864
aF1576184574.2638462
aF1576184574.2682085
aF1576184574.2721577
aF1576184574.276219
aF1576184574.2802207
aF1576184574.2843044
aF1576184574.288461
aF1576184574.292546
aF1576184574.2970061
aF1576184574.3011458
aF1576184574.3054574
aF1576184574.3093235
aF1576184574.3134463
aF1576184574.3177898
aF1576184574.3218088
aF1576184574.3262181
aF1576184574.3302903
aF1576184574.3349886
aF1576184574.3384066
aF1576184574.3424666
aF1576184574.3463142
aF1576184574.350301
aF1576184574.3543162
aF1576184574.358342
aF1576184574.3624916
aF1576184574.3664985
aF1576184574.3703866
aF1576184574.374515
aF1576184574.3788333
aF1576184574.382927
aF1576184574.3870072
aF1576184574.391294
aF1576184574.3954618
aF1576184574.3994272
aF1576184574.4034781
aF1576184574.4075391
aF1576184574.4118185
aF1576184574.4159536
aF1576184574.4199636
aF1576184574.4242904
aF1576184574.4282806
aF1576184574.4323916
aF1576184574.4364383
aF1576184574.440457
aF1576184574.444373
aF1576184574.4485667
aF1576184574.452554
aF1576184574.4566429
aF1576184574.460665
aF1576184574.464834
aF1576184574.4687967
aF1576184574.4728446
aF1576184574.4770014
aF1576184574.4808946
aF1576184574.485348
aF1576184574.4892323
aF1576184574.4934661
aF1576184574.49754
aF1576184574.5018077
aF1576184574.5057845
aF1576184574.5099232
aF1576184574.5141277
aF1576184574.518478
aF1576184574.5225117
aF1576184574.5267668
aF1576184574.530784
aF1576184574.534768
aF1576184574.5388782
aF1576184574.542834
aF1576184574.546952
aF1576184574.5508118
aF1576184574.5548143
aF1576184574.5590231
aF1576184574.563032
aF1576184574.567557
aF1576184574.5715182
aF1576184574.5755396
aF1576184574.5797298
aF1576184574.5838385
aF1576184574.5879354
aF1576184574.5918963
aF1576184574.596353
aF1576184574.6001565
aF1576184574.6041415
aF1576184574.6083293
aF1576184574.6125698
aF1576184574.616625
aF1576184574.620509
aF1576184574.624806
aF1576184574.628828
aF1576184574.6457899
aF1576184574.6462276
aF1576184574.6462932
aF1576184574.646297
aF1576184574.648808
aF1576184574.6527493
aF1576184574.6569533
aF1576184574.6610332
aF1576184574.6651056
aF1576184574.66903
aF1576184574.6730523
aF1576184574.6787004
aF1576184574.6810248
aF1576184574.6851804
aF1576184574.689162
aF1576184574.6932976
aF1576184574.6973023
aF1576184574.7012858
aF1576184574.705307
aF1576184574.7093372
aF1576184574.7134373
aF1576184574.717862
aF1576184574.7218208
aF1576184574.726347
aF1576184574.729808
aF1576184574.733768
aF1576184574.7392395
aF1576184574.742056
aF1576184574.7467806
aF1576184574.7511082
aF1576184574.7554355
aF1576184574.7599983
aF1576184574.7644854
aF1576184574.769152
aF1576184574.7738066
aF1576184574.7780347
aF1576184574.7822978
aF1576184574.7869103
aF1576184574.7909296
aF1576184574.7954142
aF1576184574.8001974
aF1576184574.8045657
aF1576184574.8091836
aF1576184574.813785
aF1576184574.8181434
aF1576184574.8220332
aF1576184574.8260398
aF1576184574.8299873
aF1576184574.8435733
aF1576184574.8435762
aF1576184574.843588
aF1576184574.8464472
aF1576184574.850331
aF1576184574.8548007
aF1576184574.8588939
aF1576184574.8631556
aF1576184574.8671396
aF1576184574.8711674
aF1576184574.8753908
aF1576184574.8794482
aF1576184574.883419
aF1576184574.8875883
aF1576184574.8918736
aF1576184574.8963819
aF1576184574.8999927
aF1576184574.9039826
aF1576184574.908042
aF1576184574.9119968
aF1576184574.9161708
aF1576184574.923527
aF1576184574.924154
aF1576184574.928462
aF1576184574.932583
aF1576184574.9370568
aF1576184574.9410174
aF1576184574.9451523
aF1576184574.9491603
aF1576184574.9531415
aF1576184574.9571538
aF1576184574.9614217
aF1576184574.9654908
aF1576184574.9697886
aF1576184574.974213
aF1576184574.9781497
aF1576184574.9820216
aF1576184574.9860508
aF1576184574.9901474
aF1576184574.9941823
aF1576184574.998142
aF1576184575.0021508
aF1576184575.0065103
aF1576184575.0102355
aF1576184575.0142708
aF1576184575.0185645
aF1576184575.0225859
aF1576184575.0267112
aF1576184575.0307548
aF1576184575.0349042
aF1576184575.0392017
aF1576184575.0432334
aF1576184575.0472302
aF1576184575.0513058
aF1576184575.0555425
aF1576184575.059785
aF1576184575.063757
aF1576184575.0677505
aF1576184575.0718286
aF1576184575.07626
aF1576184575.0801973
aF1576184575.084208
aF1576184575.0882318
aF1576184575.0921807
aF1576184575.0963128
aF1576184575.1002553
aF1576184575.1042137
aF1576184575.108441
aF1576184575.1124637
aF1576184575.1166728
aF1576184575.120692
aF1576184575.1247177
aF1576184575.1287384
aF1576184575.1351085
aF1576184575.1367915
aF1576184575.1407554
aF1576184575.1447523
aF1576184575.1487634
aF1576184575.1527405
aF1576184575.1567154
aF1576184575.160745
aF1576184575.1647403
aF1576184575.1687682
aF1576184575.172764
aF1576184575.1767557
aF1576184575.180755
aF1576184575.1847441
aF1576184575.1887648
aF1576184575.1927204
aF1576184575.1967614
aF1576184575.200742
aF1576184575.2047372
aF1576184575.2087228
aF1576184575.2127373
aF1576184575.2167828
aF1576184575.2211242
aF1576184575.2247226
aF1576184575.228812
aF1576184575.2328022
aF1576184575.2368028
aF1576184575.2407556
aF1576184575.244825
aF1576184575.2487583
aF1576184575.2527227
aF1576184575.2567813
aF1576184575.2607498
aF1576184575.2647283
aF1576184575.2687433
aF1576184575.2728045
aF1576184575.2767396
aF1576184575.2807178
aF1576184575.2847176
aF1576184575.2887623
aF1576184575.2928033
aF1576184575.2967415
aF1576184575.3007457
aF1576184575.3047311
aF1576184575.308676
aF1576184575.3128378
aF1576184575.316857
aF1576184575.3208292
aF1576184575.3248491
aF1576184575.3288505
aF1576184575.3348227
aF1576184575.3370206
aF1576184575.3408895
aF1576184575.3448389
aF1576184575.3489442
aF1576184575.3530436
aF1576184575.3568785
aF1576184575.3608546
aF1576184575.3648279
aF1576184575.368881
aF1576184575.374069
aF1576184575.3768675
aF1576184575.380961
aF1576184575.3848648
aF1576184575.3888376
aF1576184575.3928592
aF1576184575.3970516
aF1576184575.400828
aF1576184575.4049687
aF1576184575.4089339
aF1576184575.4130042
aF1576184575.416962
aF1576184575.4211082
aF1576184575.4251628
aF1576184575.4291358
aF1576184575.4374459
aF1576184575.4376707
aF1576184575.4412231
aF1576184575.4452097
aF1576184575.449307
aF1576184575.4532728
aF1576184575.4573774
aF1576184575.461219
aF1576184575.4652252
aF1576184575.469222
aF1576184575.4739113
aF1576184575.4772062
aF1576184575.4816773
aF1576184575.4862194
aF1576184575.4908552
aF1576184575.4954102
aF1576184575.4999335
aF1576184575.5044825
aF1576184575.5087209
aF1576184575.5132244
aF1576184575.517861
aF1576184575.5222645
aF1576184575.5268438
aF1576184575.5308318
aF1576184575.5354464
aF1576184575.5400481
aF1576184575.544544
aF1576184575.5488393
aF1576184575.552794
aF1576184575.5568655
aF1576184575.5608044
aF1576184575.564843
aF1576184575.5688384
aF1576184575.572838
aF1576184575.5768623
aF1576184575.5808444
aF1576184575.5848572
aF1576184575.5888228
aF1576184575.5928314
aF1576184575.596869
aF1576184575.6008394
aF1576184575.6048179
aF1576184575.608868
aF1576184575.612785
aF1576184575.6168444
aF1576184575.620926
aF1576184575.6248848
aF1576184575.6289446
aF1576184575.6329377
aF1576184575.6371722
aF1576184575.640954
aF1576184575.6449676
aF1576184575.6489599
aF1576184575.6529396
aF1576184575.6571686
aF1576184575.6611164
aF1576184575.6651301
aF1576184575.6690533
aF1576184575.6730454
aF1576184575.6770568
aF1576184575.6810427
aF1576184575.6851325
aF1576184575.6890688
aF1576184575.693132
aF1576184575.697156
aF1576184575.7010818
aF1576184575.7050803
aF1576184575.7092931
aF1576184575.713021
aF1576184575.717067
aF1576184575.7210963
aF1576184575.7251353
aF1576184575.729566
aF1576184575.733171
aF1576184575.7372067
aF1576184575.741198
aF1576184575.7452276
aF1576184575.7492058
aF1576184575.7531972
aF1576184575.757276
aF1576184575.761154
aF1576184575.7652915
aF1576184575.769306
aF1576184575.7732983
aF1576184575.7774482
aF1576184575.7813344
aF1576184575.7854543
aF1576184575.7892833
aF1576184575.793299
aF1576184575.7972963
aF1576184575.8013117
aF1576184575.8053713
aF1576184575.809299
aF1576184575.8132854
aF1576184575.8174486
aF1576184575.8212812
aF1576184575.8253098
aF1576184575.82932
aF1576184575.8348877
aF1576184575.8387034
aF1576184575.8413458
aF1576184575.8454282
aF1576184575.849428
aF1576184575.8535838
aF1576184575.8574576
aF1576184575.8615339
aF1576184575.8654783
aF1576184575.8694537
aF1576184575.873473
aF1576184575.8774137
aF1576184575.8814223
aF1576184575.8858523
aF1576184575.8896747
aF1576184575.8936403
aF1576184575.8976617
aF1576184575.9016721
aF1576184575.9057357
aF1576184575.9098048
aF1576184575.9137673
aF1576184575.9177852
aF1576184575.921805
aF1576184575.9259262
aF1576184575.9297867
aF1576184575.9338694
aF1576184575.9377604
aF1576184575.9418285
aF1576184575.9457788
aF1576184575.9498641
aF1576184575.953982
aF1576184575.95787
aF1576184575.9619148
aF1576184575.9657369
aF1576184575.9698913
aF1576184575.9740827
aF1576184575.9783158
aF1576184575.9822624
aF1576184575.9863293
aF1576184575.9904432
aF1576184575.9947298
aF1576184575.9987164
aF1576184576.0027428
aF1576184576.0067458
aF1576184576.010791
aF1576184576.0146697
aF1576184576.018678
aF1576184576.0226307
aF1576184576.0268168
aF1576184576.0307455
aF1576184576.042217
aF1576184576.0422206
aF1576184576.0427344
aF1576184576.046731
aF1576184576.0506856
aF1576184576.0546908
aF1576184576.0586963
aF1576184576.062784
aF1576184576.0668578
aF1576184576.0708704
aF1576184576.0747721
aF1576184576.0787888
aF1576184576.0827465
aF1576184576.086773
aF1576184576.0908053
aF1576184576.0948246
aF1576184576.0989492
aF1576184576.102962
aF1576184576.1070352
aF1576184576.1110005
aF1576184576.115145
aF1576184576.1191947
aF1576184576.1231499
aF1576184576.1271825
aF1576184576.1312299
aF1576184576.1352582
aF1576184576.1396575
aF1576184576.143606
aF1576184576.1477766
aF1576184576.1516306
aF1576184576.1555848
aF1576184576.1596215
aF1576184576.1636193
aF1576184576.1676426
aF1576184576.1716304
aF1576184576.1756973
aF1576184576.1797295
aF1576184576.183848
aF1576184576.1877413
aF1576184576.191865
aF1576184576.1957421
aF1576184576.1997664
aF1576184576.204103
aF1576184576.2080667
aF1576184576.2128112
aF1576184576.2171738
aF1576184576.2218173
aF1576184576.2263544
aF1576184576.2310562
aF1576184576.2353911
aF1576184576.2398021
aF1576184576.2440348
aF1576184576.2484505
aF1576184576.2527888
aF1576184576.2569733
aF1576184576.2614346
aF1576184576.2663486
aF1576184576.2703567
aF1576184576.2749562
aF1576184576.279221
aF1576184576.2831619
aF1576184576.2871928
aF1576184576.2911558
aF1576184576.295184
aF1576184576.2992475
aF1576184576.3031504
aF1576184576.3071635
aF1576184576.3111546
aF1576184576.3151708
aF1576184576.3191733
aF1576184576.323176
aF1576184576.3271685
aF1576184576.331152
aF1576184576.3352313
aF1576184576.3392713
aF1576184576.3431737
aF1576184576.3472202
aF1576184576.3512638
aF1576184576.3551722
aF1576184576.3592355
aF1576184576.3631756
aF1576184576.367194
aF1576184576.3711622
aF1576184576.3751838
aF1576184576.3791978
aF1576184576.38319
aF1576184576.3871732
aF1576184576.3911862
aF1576184576.3951588
aF1576184576.3992536
aF1576184576.4031546
aF1576184576.4071758
aF1576184576.411202
aF1576184576.415179
aF1576184576.4192107
aF1576184576.4231904
aF1576184576.427153
aF1576184576.4312167
aF1576184576.4362743
aF1576184576.439369
aF1576184576.4434202
aF1576184576.447403
aF1576184576.4513757
aF1576184576.4553761
aF1576184576.4597251
aF1576184576.4636447
aF1576184576.4677577
aF1576184576.4719815
aF1576184576.476423
aF1576184576.4802284
aF1576184576.4840279
aF1576184576.4880228
aF1576184576.4920142
aF1576184576.4960017
aF1576184576.5000026
aF1576184576.5040536
aF1576184576.5080638
aF1576184576.5120184
aF1576184576.516041
aF1576184576.5201795
aF1576184576.5241768
aF1576184576.5281558
aF1576184576.535658
aF1576184576.5362253
aF1576184576.5401812
aF1576184576.544207
aF1576184576.5481906
aF1576184576.5521796
aF1576184576.556247
aF1576184576.5601978
aF1576184576.5641737
aF1576184576.5681567
aF1576184576.572171
aF1576184576.5762553
aF1576184576.5802343
aF1576184576.5842543
aF1576184576.588178
aF1576184576.5923667
aF1576184576.5963504
aF1576184576.600286
aF1576184576.6042378
aF1576184576.6082356
aF1576184576.6124597
aF1576184576.6163738
aF1576184576.6203918
aF1576184576.6243775
aF1576184576.6283472
aF1576184576.6324675
aF1576184576.636495
aF1576184576.6404448
aF1576184576.6443481
aF1576184576.648379
aF1576184576.652367
aF1576184576.656555
aF1576184576.6603756
aF1576184576.6644056
aF1576184576.6683636
aF1576184576.672557
aF1576184576.6766348
aF1576184576.6805937
aF1576184576.6846037
aF1576184576.6886008
aF1576184576.6925457
aF1576184576.6967566
aF1576184576.7007406
aF1576184576.705012
aF1576184576.7109025
aF1576184576.7127962
aF1576184576.7168453
aF1576184576.720714
aF1576184576.7247567
aF1576184576.7288992
aF1576184576.7358468
aF1576184576.7367802
aF1576184576.7406974
aF1576184576.7447932
aF1576184576.7487264
aF1576184576.7526777
aF1576184576.756679
aF1576184576.7607641
aF1576184576.7647517
aF1576184576.76869
aF1576184576.7727325
aF1576184576.7767181
aF1576184576.78074
aF1576184576.7846644
aF1576184576.7888308
aF1576184576.7928338
aF1576184576.7968326
aF1576184576.8008528
aF1576184576.8048346
aF1576184576.808882
aF1576184576.8128283
aF1576184576.8168888
aF1576184576.8209321
aF1576184576.8248563
aF1576184576.828828
aF1576184576.8332648
aF1576184576.836872
aF1576184576.840856
aF1576184576.844887
aF1576184576.8489208
aF1576184576.8528807
aF1576184576.8568344
aF1576184576.8608632
aF1576184576.864817
aF1576184576.868844
aF1576184576.8728352
aF1576184576.8768501
aF1576184576.8807704
aF1576184576.8849382
aF1576184576.8891017
aF1576184576.8933158
aF1576184576.8971515
aF1576184576.9014351
aF1576184576.9055245
aF1576184576.909557
aF1576184576.9135597
aF1576184576.9175472
aF1576184576.9216273
aF1576184576.9255803
aF1576184576.9295352
aF1576184576.9340258
aF1576184576.938771
aF1576184576.9431956
aF1576184576.9478154
aF1576184576.952346
aF1576184576.9569385
aF1576184576.9613233
aF1576184576.965663
aF1576184576.9697566
aF1576184576.9736867
aF1576184576.9776533
aF1576184576.9816575
aF1576184576.9858718
aF1576184576.990293
aF1576184576.9949431
aF1576184576.9995427
aF1576184577.0040126
aF1576184577.0082088
aF1576184577.0122905
aF1576184577.0163522
aF1576184577.0203228
aF1576184577.0247028
aF1576184577.0287027
aF1576184577.0350475
aF1576184577.0368226
aF1576184577.0408828
aF1576184577.0447888
aF1576184577.0487907
aF1576184577.052893
aF1576184577.056871
aF1576184577.0608044
aF1576184577.0648537
aF1576184577.0688195
aF1576184577.0727913
aF1576184577.0768073
aF1576184577.080834
aF1576184577.0848525
aF1576184577.0888236
aF1576184577.0928454
aF1576184577.0968027
aF1576184577.100833
aF1576184577.1049678
aF1576184577.108845
aF1576184577.1127782
aF1576184577.1168847
aF1576184577.1208172
aF1576184577.1249745
aF1576184577.1288586
aF1576184577.1327925
aF1576184577.1368783
aF1576184577.140828
aF1576184577.1448581
aF1576184577.1488369
aF1576184577.152861
aF1576184577.1569064
aF1576184577.1608531
aF1576184577.1648443
aF1576184577.1687806
aF1576184577.1728556
aF1576184577.1768222
aF1576184577.1808355
aF1576184577.1848927
aF1576184577.1889064
aF1576184577.1929107
aF1576184577.19689
aF1576184577.2008495
aF1576184577.2049499
aF1576184577.2089462
aF1576184577.2129555
aF1576184577.2169414
aF1576184577.2209604
aF1576184577.224877
aF1576184577.2290435
aF1576184577.2331645
aF1576184577.2372355
aF1576184577.241189
aF1576184577.2452152
aF1576184577.2491553
aF1576184577.2535045
aF1576184577.2576141
aF1576184577.261506
aF1576184577.2657096
aF1576184577.2699506
aF1576184577.2742186
aF1576184577.2781155
aF1576184577.282191
aF1576184577.2864652
aF1576184577.2903326
aF1576184577.2942693
aF1576184577.2985837
aF1576184577.3026855
aF1576184577.3067753
aF1576184577.311389
aF1576184577.315016
aF1576184577.3191826
aF1576184577.3233013
aF1576184577.3272858
aF1576184577.3314853
aF1576184577.3367746
aF1576184577.3397315
aF1576184577.3437877
aF1576184577.3480458
aF1576184577.3521104
aF1576184577.3564441
aF1576184577.3601007
aF1576184577.3641965
aF1576184577.3681753
aF1576184577.3722827
aF1576184577.3765132
aF1576184577.380615
aF1576184577.384491
aF1576184577.3885343
aF1576184577.3931637
aF1576184577.397199
aF1576184577.4013078
aF1576184577.4053168
aF1576184577.4113252
aF1576184577.4135108
aF1576184577.4176037
aF1576184577.4216223
aF1576184577.4256828
aF1576184577.4299228
aF1576184577.4339693
aF1576184577.4382787
aF1576184577.4424744
aF1576184577.446342
aF1576184577.4503415
aF1576184577.4543245
aF1576184577.4585276
aF1576184577.4626386
aF1576184577.4665344
aF1576184577.470539
aF1576184577.4745705
aF1576184577.4785051
aF1576184577.4827564
aF1576184577.4868894
aF1576184577.490886
aF1576184577.495024
aF1576184577.4993834
aF1576184577.503478
aF1576184577.5076845
aF1576184577.5115948
aF1576184577.5156476
aF1576184577.5198758
aF1576184577.5240421
aF1576184577.5282352
aF1576184577.532251
aF1576184577.5364668
aF1576184577.5406778
aF1576184577.5444992
aF1576184577.5485377
aF1576184577.552552
aF1576184577.5565088
aF1576184577.5606534
aF1576184577.5646303
aF1576184577.5686393
aF1576184577.572681
aF1576184577.5766234
aF1576184577.5806513
aF1576184577.5847566
aF1576184577.5887504
aF1576184577.5928423
aF1576184577.596895
aF1576184577.6010702
aF1576184577.6049757
aF1576184577.6091452
aF1576184577.6134531
aF1576184577.6174958
aF1576184577.6214988
aF1576184577.6254952
aF1576184577.629484
aF1576184577.6348484
aF1576184577.6375496
aF1576184577.6416953
aF1576184577.6456945
aF1576184577.649652
aF1576184577.6538684
aF1576184577.6578414
aF1576184577.662449
aF1576184577.666841
aF1576184577.6714523
aF1576184577.6761336
aF1576184577.6806006
aF1576184577.684977
aF1576184577.6893084
aF1576184577.6936512
aF1576184577.698183
aF1576184577.7025876
aF1576184577.7070303
aF1576184577.7116187
aF1576184577.7158477
aF1576184577.7202742
aF1576184577.7249515
aF1576184577.7295978
aF1576184577.7338748
aF1576184577.7377398
aF1576184577.741768
aF1576184577.7459548
aF1576184577.7498925
aF1576184577.7542887
aF1576184577.7582638
aF1576184577.762675
aF1576184577.7666779
aF1576184577.7707527
aF1576184577.7748227
aF1576184577.7788467
aF1576184577.7828574
aF1576184577.786983
aF1576184577.791036
aF1576184577.7952614
aF1576184577.7996657
aF1576184577.8037028
aF1576184577.8076906
aF1576184577.8117037
aF1576184577.8157265
aF1576184577.8197293
aF1576184577.8237925
aF1576184577.8278787
aF1576184577.8356955
aF1576184577.8362572
aF1576184577.8400786
aF1576184577.844022
aF1576184577.8479836
aF1576184577.852068
aF1576184577.8564029
aF1576184577.8601935
aF1576184577.864236
aF1576184577.8683498
aF1576184577.8724587
aF1576184577.8766987
aF1576184577.8807786
aF1576184577.884889
aF1576184577.8887713
aF1576184577.8927677
aF1576184577.8967502
aF1576184577.9007478
aF1576184577.9048622
aF1576184577.9088297
aF1576184577.9128537
aF1576184577.9168432
aF1576184577.9209218
aF1576184577.925
aF1576184577.9289806
aF1576184577.9331112
aF1576184577.9371061
aF1576184577.9413838
aF1576184577.945251
aF1576184577.949502
aF1576184577.9535565
aF1576184577.9579494
aF1576184577.9620893
aF1576184577.9662704
aF1576184577.97039
aF1576184577.9744775
aF1576184577.9788516
aF1576184577.9828792
aF1576184577.9869568
aF1576184577.9908774
aF1576184577.994964
aF1576184577.998968
aF1576184578.0030506
aF1576184578.007002
aF1576184578.011057
aF1576184578.015103
aF1576184578.0192633
aF1576184578.0235102
aF1576184578.0274627
aF1576184578.0316699
aF1576184578.0362186
aF1576184578.0400863
aF1576184578.0442553
aF1576184578.048281
aF1576184578.0521622
aF1576184578.0564678
aF1576184578.0605183
aF1576184578.0646076
aF1576184578.0685098
aF1576184578.0724015
aF1576184578.0769572
aF1576184578.0810463
aF1576184578.0850723
aF1576184578.0890713
aF1576184578.0932395
aF1576184578.097166
aF1576184578.101434
aF1576184578.105424
aF1576184578.1094296
aF1576184578.113607
aF1576184578.1176105
aF1576184578.1216943
aF1576184578.12637
aF1576184578.1305466
aF1576184578.1351988
aF1576184578.13859
aF1576184578.1426666
aF1576184578.146797
aF1576184578.150806
aF1576184578.1549082
aF1576184578.15918
aF1576184578.1632242
aF1576184578.1672056
aF1576184578.1713922
aF1576184578.175656
aF1576184578.1795435
aF1576184578.1835747
aF1576184578.1876585
aF1576184578.1916635
aF1576184578.1956735
aF1576184578.1997733
aF1576184578.2038631
aF1576184578.2079067
aF1576184578.2122934
aF1576184578.2162135
aF1576184578.2203977
aF1576184578.224523
aF1576184578.2286165
aF1576184578.2434945
aF1576184578.2434974
aF1576184578.243507
aF1576184578.2452664
aF1576184578.2494047
aF1576184578.2534957
aF1576184578.2574222
aF1576184578.2614434
aF1576184578.2655685
aF1576184578.2695477
aF1576184578.2735357
aF1576184578.277753
aF1576184578.281769
aF1576184578.28568
aF1576184578.2896888
aF1576184578.2937765
aF1576184578.2977498
aF1576184578.3016777
aF1576184578.305707
aF1576184578.3097937
aF1576184578.31388
aF1576184578.3178797
aF1576184578.321932
aF1576184578.3262634
aF1576184578.331903
aF1576184578.3342602
aF1576184578.3384275
aF1576184578.3424685
aF1576184578.3464153
aF1576184578.3504672
aF1576184578.3544493
aF1576184578.35844
aF1576184578.3624992
aF1576184578.3666778
aF1576184578.3706772
aF1576184578.374947
aF1576184578.3789406
aF1576184578.3834674
aF1576184578.3875914
aF1576184578.392106
aF1576184578.3967137
aF1576184578.4012203
aF1576184578.4064724
aF1576184578.4103622
aF1576184578.4148777
aF1576184578.4191918
aF1576184578.4234805
aF1576184578.4278843
aF1576184578.4325426
aF1576184578.4367826
aF1576184578.4414153
aF1576184578.4459543
aF1576184578.4505723
aF1576184578.4550483
aF1576184578.459596
aF1576184578.4637744
aF1576184578.4678733
aF1576184578.4719243
aF1576184578.4762864
aF1576184578.4802318
aF1576184578.4841669
aF1576184578.488808
aF1576184578.4927955
aF1576184578.4969182
aF1576184578.5012262
aF1576184578.505558
aF1576184578.5096884
aF1576184578.5137222
aF1576184578.5176938
aF1576184578.5217133
aF1576184578.525773
aF1576184578.529635
aF1576184578.533846
aF1576184578.5377483
aF1576184578.541689
aF1576184578.546297
aF1576184578.549802
aF1576184578.5537848
aF1576184578.5578575
aF1576184578.5619361
aF1576184578.5657353
aF1576184578.5701852
aF1576184578.5743735
aF1576184578.5788255
aF1576184578.5828862
aF1576184578.586948
aF1576184578.591057
aF1576184578.5949025
aF1576184578.5990367
aF1576184578.6029525
aF1576184578.6070378
aF1576184578.6110053
aF1576184578.6150844
aF1576184578.6192248
aF1576184578.6232126
aF1576184578.6272533
aF1576184578.6315756
aF1576184578.6354003
aF1576184578.6393654
aF1576184578.6433854
aF1576184578.647381
aF1576184578.6518977
aF1576184578.655771
aF1576184578.659879
aF1576184578.6640456
aF1576184578.6680386
aF1576184578.6719913
aF1576184578.6763046
aF1576184578.6803715
aF1576184578.6843703
aF1576184578.6884239
aF1576184578.6923556
aF1576184578.6964614
aF1576184578.7005124
aF1576184578.704863
aF1576184578.7087846
aF1576184578.7129354
aF1576184578.7170324
aF1576184578.7210302
aF1576184578.725243
aF1576184578.7297912
aF1576184578.7332802
aF1576184578.7372022
aF1576184578.7414548
aF1576184578.7455022
aF1576184578.7499363
aF1576184578.7540307
aF1576184578.7580492
aF1576184578.762438
aF1576184578.770852
aF1576184578.770855
aF1576184578.7743776
aF1576184578.7785614
aF1576184578.7826445
aF1576184578.7870421
aF1576184578.7910047
aF1576184578.79511
aF1576184578.799297
aF1576184578.8030653
aF1576184578.8071718
aF1576184578.811227
aF1576184578.8152223
aF1576184578.8191187
aF1576184578.8233852
aF1576184578.8273497
aF1576184578.8315282
aF1576184578.8354895
aF1576184578.8395612
aF1576184578.8436644
aF1576184578.8478267
aF1576184578.8520854
aF1576184578.8564239
aF1576184578.8602166
aF1576184578.8642032
aF1576184578.868216
aF1576184578.8723238
aF1576184578.8763962
aF1576184578.880185
aF1576184578.8842225
aF1576184578.8881118
aF1576184578.8923938
aF1576184578.8963816
aF1576184578.9003627
aF1576184578.9043937
aF1576184578.9084063
aF1576184578.9124005
aF1576184578.9165072
aF1576184578.9204895
aF1576184578.9246628
aF1576184578.9286604
aF1576184578.9397995
aF1576184578.939803
aF1576184578.9413066
aF1576184578.9451835
aF1576184578.9491136
aF1576184578.9531076
aF1576184578.9571652
aF1576184578.9614577
aF1576184578.965348
aF1576184578.9693434
aF1576184578.9733915
aF1576184578.9774508
aF1576184578.9814079
aF1576184578.9853659
aF1576184578.9894109
aF1576184578.9934676
aF1576184578.9975524
aF1576184579.0016196
aF1576184579.0056658
aF1576184579.0096257
aF1576184579.0136864
aF1576184579.0175629
aF1576184579.0217612
aF1576184579.0257623
aF1576184579.0297678
aF1576184579.0338671
aF1576184579.0378933
aF1576184579.0421116
aF1576184579.0464175
aF1576184579.0503938
aF1576184579.0544536
aF1576184579.058519
aF1576184579.0624921
aF1576184579.066505
aF1576184579.0705602
aF1576184579.0746708
aF1576184579.0786068
aF1576184579.0826485
aF1576184579.0867627
aF1576184579.090765
aF1576184579.0948584
aF1576184579.0988655
aF1576184579.1028442
aF1576184579.1068506
aF1576184579.1112745
aF1576184579.115895
aF1576184579.1205022
aF1576184579.1249456
aF1576184579.1304245
aF1576184579.1340563
aF1576184579.1386926
aF1576184579.142742
aF1576184579.147002
aF1576184579.1514418
aF1576184579.1558459
aF1576184579.1604323
aF1576184579.1646743
aF1576184579.1693203
aF1576184579.174136
aF1576184579.1784914
aF1576184579.1828454
aF1576184579.187078
aF1576184579.1911097
aF1576184579.1955304
aF1576184579.1995275
aF1576184579.203624
aF1576184579.2076378
aF1576184579.2117517
aF1576184579.2157512
aF1576184579.220069
aF1576184579.2245114
aF1576184579.2286072
aF1576184579.2326627
aF1576184579.2368174
aF1576184579.2407763
aF1576184579.2448657
aF1576184579.248877
aF1576184579.2528603
aF1576184579.2568552
aF1576184579.2608142
aF1576184579.264861
aF1576184579.2688098
aF1576184579.2728791
aF1576184579.2769852
aF1576184579.2812352
aF1576184579.2852752
aF1576184579.2896113
aF1576184579.293547
aF1576184579.2977033
aF1576184579.3018343
aF1576184579.3059282
aF1576184579.3098767
aF1576184579.3138952
aF1576184579.3178895
aF1576184579.321845
aF1576184579.3261333
aF1576184579.330303
aF1576184579.3355742
aF1576184579.3386996
aF1576184579.3427587
aF1576184579.346903
aF1576184579.3508756
aF1576184579.35485
aF1576184579.3588665
aF1576184579.3629005
aF1576184579.3668723
aF1576184579.3709035
aF1576184579.374906
aF1576184579.379047
aF1576184579.3830075
aF1576184579.3871706
aF1576184579.3913016
aF1576184579.3954973
aF1576184579.3998504
aF1576184579.4038312
aF1576184579.4080443
aF1576184579.4121253
aF1576184579.4160879
aF1576184579.4203176
aF1576184579.4244144
aF1576184579.4285197
aF1576184579.4328196
aF1576184579.4367113
aF1576184579.4408429
aF1576184579.4448273
aF1576184579.4488268
aF1576184579.452856
aF1576184579.4569042
aF1576184579.4610124
aF1576184579.465222
aF1576184579.469105
aF1576184579.4730666
aF1576184579.4770596
aF1576184579.4814994
aF1576184579.4855454
aF1576184579.489951
aF1576184579.4938886
aF1576184579.4980676
aF1576184579.5020776
aF1576184579.5061152
aF1576184579.5103662
aF1576184579.5143583
aF1576184579.5186422
aF1576184579.5228891
aF1576184579.5269096
aF1576184579.5308952
aF1576184579.5350087
aF1576184579.5392609
aF1576184579.5429895
aF1576184579.5469584
aF1576184579.5510964
aF1576184579.5552795
aF1576184579.5593946
aF1576184579.5639203
aF1576184579.567915
aF1576184579.5720394
aF1576184579.5763466
aF1576184579.5803492
aF1576184579.5843005
aF1576184579.58851
aF1576184579.592329
aF1576184579.5966005
aF1576184579.6005387
aF1576184579.6045787
aF1576184579.608814
aF1576184579.612929
aF1576184579.617009
aF1576184579.6210163
aF1576184579.6250336
aF1576184579.6292884
aF1576184579.6334202
aF1576184579.63727
aF1576184579.6413841
aF1576184579.6453435
aF1576184579.6494336
aF1576184579.6534503
aF1576184579.657418
aF1576184579.6618497
aF1576184579.666127
aF1576184579.6704388
aF1576184579.6744514
aF1576184579.6785316
aF1576184579.682549
aF1576184579.686572
aF1576184579.6907575
aF1576184579.6949024
aF1576184579.699424
aF1576184579.7029989
aF1576184579.7073421
aF1576184579.711323
aF1576184579.715471
aF1576184579.7194648
aF1576184579.723467
aF1576184579.7285933
aF1576184579.7315114
aF1576184579.7355387
aF1576184579.7401426
aF1576184579.74364
aF1576184579.747598
aF1576184579.7515264
aF1576184579.7555525
aF1576184579.7595072
aF1576184579.7634864
aF1576184579.7675562
aF1576184579.771645
aF1576184579.7756598
aF1576184579.7800915
aF1576184579.7862952
aF1576184579.7877972
aF1576184579.791912
aF1576184579.7959175
aF1576184579.800234
aF1576184579.8042605
aF1576184579.808266
aF1576184579.8123164
aF1576184579.8163366
aF1576184579.820329
aF1576184579.8243678
aF1576184579.8286455
aF1576184579.8328786
aF1576184579.8368292
aF1576184579.841291
aF1576184579.8462996
aF1576184579.850283
aF1576184579.854758
aF1576184579.8594482
aF1576184579.8639185
aF1576184579.8683991
aF1576184579.8726242
aF1576184579.8773813
aF1576184579.8818035
aF1576184579.8863852
aF1576184579.8905468
aF1576184579.8949962
aF1576184579.8996582
aF1576184579.9042954
aF1576184579.9085808
aF1576184579.9125445
aF1576184579.9165268
aF1576184579.920683
aF1576184579.9246142
aF1576184579.928929
aF1576184579.9328449
aF1576184579.936917
aF1576184579.9428027
aF1576184579.9454226
aF1576184579.9495447
aF1576184579.9536288
aF1576184579.9576268
aF1576184579.9616578
aF1576184579.965848
aF1576184579.9697752
aF1576184579.9738584
aF1576184579.9778554
aF1576184579.981907
aF1576184579.9863195
aF1576184579.990028
aF1576184579.9942846
aF1576184579.9985433
aF1576184580.0025237
aF1576184580.0065567
aF1576184580.0106719
aF1576184580.014534
aF1576184580.018577
aF1576184580.0227673
aF1576184580.0267842
aF1576184580.0309708
aF1576184580.034975
aF1576184580.039031
aF1576184580.043123
aF1576184580.047035
aF1576184580.051014
aF1576184580.0550406
aF1576184580.0590832
aF1576184580.0630455
aF1576184580.0672703
aF1576184580.0713828
aF1576184580.0756414
aF1576184580.0796976
aF1576184580.0834918
aF1576184580.087555
aF1576184580.0916293
aF1576184580.0956473
aF1576184580.099908
aF1576184580.1040542
aF1576184580.107987
aF1576184580.1122854
aF1576184580.1164017
aF1576184580.120721
aF1576184580.12469
aF1576184580.1287546
aF1576184580.1327467
aF1576184580.1367986
aF1576184580.1409059
aF1576184580.1452155
aF1576184580.1492033
aF1576184580.1533346
aF1576184580.1576767
aF1576184580.1617103
aF1576184580.1657612
aF1576184580.1697862
aF1576184580.1736975
aF1576184580.1777873
aF1576184580.1818597
aF1576184580.1857684
aF1576184580.1898222
aF1576184580.1938956
aF1576184580.1979122
aF1576184580.2020118
aF1576184580.2062309
aF1576184580.2104425
aF1576184580.2147734
aF1576184580.2187345
aF1576184580.2227945
aF1576184580.2269657
aF1576184580.230961
aF1576184580.2352512
aF1576184580.2393217
aF1576184580.243466
aF1576184580.2472763
aF1576184580.2513022
aF1576184580.2553468
aF1576184580.2595122
aF1576184580.263845
aF1576184580.2679808
aF1576184580.2719076
aF1576184580.2764568
aF1576184580.2798865
aF1576184580.2839632
aF1576184580.2881727
aF1576184580.2922964
aF1576184580.2964158
aF1576184580.3003979
aF1576184580.3043756
aF1576184580.3086257
aF1576184580.312867
aF1576184580.3172386
aF1576184580.3211808
aF1576184580.3252833
aF1576184580.329212
aF1576184580.3332531
aF1576184580.3372145
aF1576184580.3412912
aF1576184580.3452022
aF1576184580.3493388
aF1576184580.353322
aF1576184580.3573475
aF1576184580.3614125
aF1576184580.36535
aF1576184580.3694768
aF1576184580.3735442
aF1576184580.3774707
aF1576184580.3817682
aF1576184580.3859842
aF1576184580.389945
aF1576184580.394294
aF1576184580.3981864
aF1576184580.4021754
aF1576184580.4062412
aF1576184580.4102662
aF1576184580.4142895
aF1576184580.4184198
aF1576184580.4224448
aF1576184580.426451
aF1576184580.4304132
aF1576184580.4343562
aF1576184580.4383912
aF1576184580.442419
aF1576184580.4464228
aF1576184580.4504533
aF1576184580.4543378
aF1576184580.4583895
aF1576184580.462563
aF1576184580.466716
aF1576184580.4706788
aF1576184580.4746099
aF1576184580.4786494
aF1576184580.4827592
aF1576184580.486732
aF1576184580.490832
aF1576184580.4951785
aF1576184580.4993024
aF1576184580.5032642
aF1576184580.5071719
aF1576184580.511213
aF1576184580.5152361
aF1576184580.519202
aF1576184580.5232043
aF1576184580.5271912
aF1576184580.5313284
aF1576184580.5352075
aF1576184580.5392723
aF1576184580.5434666
aF1576184580.5475674
aF1576184580.5516496
aF1576184580.555667
aF1576184580.5599084
aF1576184580.564025
aF1576184580.5688648
aF1576184580.5733328
aF1576184580.577782
aF1576184580.5823004
aF1576184580.5867636
aF1576184580.5912395
aF1576184580.5953953
aF1576184580.5994632
aF1576184580.6039941
aF1576184580.608246
aF1576184580.6126084
aF1576184580.6173296
aF1576184580.6217332
aF1576184580.6263897
aF1576184580.6308358
aF1576184580.6354632
aF1576184580.6397583
aF1576184580.6437278
aF1576184580.6479158
aF1576184580.6524339
aF1576184580.6565483
aF1576184580.6604526
aF1576184580.6644657
aF1576184580.6685936
aF1576184580.6725628
aF1576184580.676698
aF1576184580.6807704
aF1576184580.6848645
aF1576184580.688924
aF1576184580.6934671
aF1576184580.6974037
aF1576184580.7014287
aF1576184580.7055929
aF1576184580.709779
aF1576184580.7136922
aF1576184580.717685
aF1576184580.7217612
aF1576184580.7256923
aF1576184580.7303553
aF1576184580.734246
aF1576184580.7384744
aF1576184580.7426496
aF1576184580.7467294
aF1576184580.7508574
aF1576184580.7550108
aF1576184580.7594512
aF1576184580.7634962
aF1576184580.767622
aF1576184580.771654
aF1576184580.7762
aF1576184580.779964
aF1576184580.7839892
aF1576184580.7882006
aF1576184580.7921774
aF1576184580.796451
aF1576184580.8007169
aF1576184580.8046563
aF1576184580.8085933
aF1576184580.8126283
aF1576184580.817232
aF1576184580.8206568
aF1576184580.8247445
aF1576184580.828807
aF1576184580.8331125
aF1576184580.8370466
aF1576184580.84129
aF1576184580.845398
aF1576184580.8496718
aF1576184580.8535779
aF1576184580.8580403
aF1576184580.8619523
aF1576184580.8664231
aF1576184580.8706656
aF1576184580.8745725
aF1576184580.8785872
aF1576184580.8826466
aF1576184580.8867376
aF1576184580.890723
aF1576184580.89482
aF1576184580.8987918
aF1576184580.902841
aF1576184580.9071004
aF1576184580.9109507
aF1576184580.9148943
aF1576184580.9193146
aF1576184580.9234204
aF1576184580.927787
aF1576184580.9319987
aF1576184580.9364989
aF1576184580.9403958
aF1576184580.9445019
aF1576184580.9487574
aF1576184580.9526622
aF1576184580.9568772
aF1576184580.9608037
aF1576184580.9652317
aF1576184580.9691901
aF1576184580.9732022
aF1576184580.977365
aF1576184580.9813566
aF1576184580.9853985
aF1576184580.9898057
aF1576184580.993829
aF1576184580.997925
aF1576184581.002239
aF1576184581.0062613
aF1576184581.010182
aF1576184581.0142055
aF1576184581.0184681
aF1576184581.0225787
aF1576184581.026853
aF1576184581.0311744
aF1576184581.035276
aF1576184581.0391984
aF1576184581.0432496
aF1576184581.0474055
aF1576184581.0515554
aF1576184581.0557969
aF1576184581.0598292
aF1576184581.063905
aF1576184581.0679162
aF1576184581.0719106
aF1576184581.076209
aF1576184581.0802891
aF1576184581.0842037
aF1576184581.0882556
aF1576184581.0922294
aF1576184581.0964086
aF1576184581.100291
aF1576184581.1042645
aF1576184581.1085923
aF1576184581.112767
aF1576184581.1166494
aF1576184581.120967
aF1576184581.1250188
aF1576184581.129101
aF1576184581.1349645
aF1576184581.1372068
aF1576184581.141198
aF1576184581.1451273
aF1576184581.1492016
aF1576184581.1532047
aF1576184581.1573064
aF1576184581.1612298
aF1576184581.165298
aF1576184581.1692193
aF1576184581.173286
aF1576184581.1772485
aF1576184581.1812706
aF1576184581.185276
aF1576184581.1892865
aF1576184581.1933708
aF1576184581.1974025
aF1576184581.2015693
aF1576184581.2055953
aF1576184581.2095077
aF1576184581.2135408
aF1576184581.2175586
aF1576184581.2215066
aF1576184581.2255423
aF1576184581.2296698
aF1576184581.2337897
aF1576184581.2378192
aF1576184581.2419553
aF1576184581.2464275
aF1576184581.2502062
aF1576184581.2543597
aF1576184581.2582731
aF1576184581.2622197
aF1576184581.2663713
aF1576184581.270244
aF1576184581.2751791
aF1576184581.2785213
aF1576184581.282649
aF1576184581.2868218
aF1576184581.2913787
aF1576184581.296213
aF1576184581.3007343
aF1576184581.305422
aF1576184581.3098366
aF1576184581.3139238
aF1576184581.3185785
aF1576184581.3228025
aF1576184581.3272045
aF1576184581.3315094
aF1576184581.3361356
aF1576184581.3406117
aF1576184581.3454874
aF1576184581.3499498
aF1576184581.3542764
aF1576184581.3583968
aF1576184581.3626528
aF1576184581.3666751
aF1576184581.3705807
aF1576184581.3748312
aF1576184581.3793528
aF1576184581.3832567
aF1576184581.387391
aF1576184581.3914862
aF1576184581.3954997
aF1576184581.3996701
aF1576184581.4038072
aF1576184581.408265
aF1576184581.4122612
aF1576184581.4163542
aF1576184581.4202793
aF1576184581.4242709
aF1576184581.428265
aF1576184581.4353974
aF1576184581.4364698
aF1576184581.4404128
aF1576184581.44454
aF1576184581.4487445
aF1576184581.4527845
aF1576184581.456852
aF1576184581.461304
aF1576184581.4655325
aF1576184581.469473
aF1576184581.4736397
aF1576184581.4776292
aF1576184581.4816303
aF1576184581.4859052
aF1576184581.4900863
aF1576184581.4943612
aF1576184581.4983299
aF1576184581.5025206
aF1576184581.506632
aF1576184581.51053
aF1576184581.5145137
aF1576184581.5185194
aF1576184581.5225172
aF1576184581.5264418
aF1576184581.5305774
aF1576184581.5345752
aF1576184581.5385845
aF1576184581.54261
aF1576184581.546631
aF1576184581.5506523
aF1576184581.5547063
aF1576184581.5590098
aF1576184581.562863
aF1576184581.5669365
aF1576184581.5708904
aF1576184581.5748904
aF1576184581.5791366
aF1576184581.583242
aF1576184581.5874276
aF1576184581.5915027
aF1576184581.5956018
aF1576184581.5996344
aF1576184581.603648
aF1576184581.6076417
aF1576184581.6116512
aF1576184581.6157444
aF1576184581.61984
aF1576184581.6238866
aF1576184581.6278732
aF1576184581.6324542
aF1576184581.636213
aF1576184581.6401422
aF1576184581.6441782
aF1576184581.6484673
aF1576184581.65266
aF1576184581.6569078
aF1576184581.660846
aF1576184581.6648958
aF1576184581.6691031
aF1576184581.6731348
aF1576184581.6771352
aF1576184581.6810586
aF1576184581.6850998
aF1576184581.6891205
aF1576184581.6931894
aF1576184581.6971772
aF1576184581.7010992
aF1576184581.7051728
aF1576184581.7092226
aF1576184581.7133076
aF1576184581.7174807
aF1576184581.7216263
aF1576184581.725718
aF1576184581.7299569
aF1576184581.733814
aF1576184581.738536
aF1576184581.7424634
aF1576184581.7467985
aF1576184581.7510295
aF1576184581.7551167
aF1576184581.7591708
aF1576184581.7632697
aF1576184581.7673717
aF1576184581.7715123
aF1576184581.7757733
aF1576184581.7797976
aF1576184581.7841003
aF1576184581.788067
aF1576184581.7921062
aF1576184581.7962222
aF1576184581.8002675
aF1576184581.80442
aF1576184581.8084183
aF1576184581.8125014
aF1576184581.816607
aF1576184581.8208945
aF1576184581.8248146
aF1576184581.829111
aF1576184581.8330536
aF1576184581.8371334
aF1576184581.8412757
aF1576184581.845395
aF1576184581.8496366
aF1576184581.853614
aF1576184581.857853
aF1576184581.861784
aF1576184581.8662665
aF1576184581.87021
aF1576184581.8742156
aF1576184581.8781784
aF1576184581.8821957
aF1576184581.8863604
aF1576184581.8903453
aF1576184581.8943684
aF1576184581.8983755
aF1576184581.902322
aF1576184581.906492
aF1576184581.910392
aF1576184581.914459
aF1576184581.9183464
aF1576184581.9224648
aF1576184581.9264655
aF1576184581.9306064
aF1576184581.944276
aF1576184581.944278
aF1576184581.9442935
aF1576184581.9470377
aF1576184581.9510713
aF1576184581.9550214
aF1576184581.9590752
aF1576184581.9631119
aF1576184581.9670594
aF1576184581.9712327
aF1576184581.975104
aF1576184581.979068
aF1576184581.9832091
aF1576184581.9872212
aF1576184581.9912105
aF1576184581.9951863
aF1576184581.9994485
aF1576184582.0035334
aF1576184582.0078006
aF1576184582.0124917
aF1576184582.0170357
aF1576184582.0215921
aF1576184582.0261683
aF1576184582.0305035
aF1576184582.035285
aF1576184582.0392802
aF1576184582.0436509
aF1576184582.0478415
aF1576184582.0524049
aF1576184582.0568929
aF1576184582.0613537
aF1576184582.0660918
aF1576184582.0705223
aF1576184582.0750172
aF1576184582.079313
aF1576184582.0833068
aF1576184582.0873778
aF1576184582.0915558
aF1576184582.0955431
aF1576184582.0996263
aF1576184582.1036494
aF1576184582.1078153
aF1576184582.1122613
aF1576184582.11631
aF1576184582.1203847
aF1576184582.1244502
aF1576184582.1285408
aF1576184582.1325154
aF1576184582.1372218
aF1576184582.141259
aF1576184582.1452775
aF1576184582.1492915
aF1576184582.1532736
aF1576184582.1573448
aF1576184582.1613855
aF1576184582.1653807
aF1576184582.1695557
aF1576184582.1736531
aF1576184582.1776705
aF1576184582.1820805
aF1576184582.1862948
aF1576184582.1903741
aF1576184582.1944027
aF1576184582.1983995
aF1576184582.2023914
aF1576184582.20661
aF1576184582.210723
aF1576184582.214819
aF1576184582.219005
aF1576184582.2233913
aF1576184582.2274125
aF1576184582.2315094
aF1576184582.2359657
aF1576184582.239681
aF1576184582.2437952
aF1576184582.2477639
aF1576184582.2520466
aF1576184582.2564347
aF1576184582.2605
aF1576184582.2644172
aF1576184582.2683856
aF1576184582.2725296
aF1576184582.2767231
aF1576184582.2810268
aF1576184582.285252
aF1576184582.2893786
aF1576184582.2934043
aF1576184582.2974575
aF1576184582.3014002
aF1576184582.3055155
aF1576184582.3095305
aF1576184582.3135128
aF1576184582.3177862
aF1576184582.3217635
aF1576184582.325819
aF1576184582.3298068
aF1576184582.3337874
aF1576184582.3378491
aF1576184582.3418202
aF1576184582.3460276
aF1576184582.350031
aF1576184582.3541057
aF1576184582.358129
aF1576184582.362042
aF1576184582.3663707
aF1576184582.37019
aF1576184582.374272
aF1576184582.3784783
aF1576184582.382751
aF1576184582.3869975
aF1576184582.3909428
aF1576184582.395012
aF1576184582.3992155
aF1576184582.403034
aF1576184582.4071233
aF1576184582.4111805
aF1576184582.4152923
aF1576184582.4195714
aF1576184582.4234767
aF1576184582.4275687
aF1576184582.4346626
aF1576184582.4357755
aF1576184582.4402862
aF1576184582.4443536
aF1576184582.4486165
aF1576184582.4526253
aF1576184582.456757
aF1576184582.4608777
aF1576184582.4647903
aF1576184582.468984
aF1576184582.4728153
aF1576184582.4768083
aF1576184582.4810998
aF1576184582.48503
aF1576184582.4889603
aF1576184582.4930253
aF1576184582.497235
aF1576184582.5013912
aF1576184582.505677
aF1576184582.5096953
aF1576184582.5138004
aF1576184582.5179477
aF1576184582.5218315
aF1576184582.5259635
aF1576184582.5302434
aF1576184582.534285
aF1576184582.538292
aF1576184582.542578
aF1576184582.546763
aF1576184582.550789
aF1576184582.5550601
aF1576184582.5594263
aF1576184582.5631902
aF1576184582.5671966
aF1576184582.5711412
aF1576184582.5753186
aF1576184582.5791407
aF1576184582.583202
aF1576184582.5870736
aF1576184582.5911453
aF1576184582.5952077
aF1576184582.599433
aF1576184582.6031957
aF1576184582.607228
aF1576184582.611285
aF1576184582.6153245
aF1576184582.6194065
aF1576184582.6235588
aF1576184582.6277328
aF1576184582.631973
aF1576184582.6365528
aF1576184582.6401834
aF1576184582.6442177
aF1576184582.6482363
aF1576184582.6522813
aF1576184582.6562433
aF1576184582.660267
aF1576184582.6643414
aF1576184582.6684191
aF1576184582.672482
aF1576184582.6765068
aF1576184582.6804764
aF1576184582.6845393
aF1576184582.6885364
aF1576184582.692534
aF1576184582.6966457
aF1576184582.701009
aF1576184582.704902
aF1576184582.7091453
aF1576184582.712994
aF1576184582.7171268
aF1576184582.7214682
aF1576184582.7254944
aF1576184582.7296884
aF1576184582.734189
aF1576184582.7386441
aF1576184582.7432299
aF1576184582.7477787
aF1576184582.7523818
aF1576184582.7566264
aF1576184582.7610595
aF1576184582.765159
aF1576184582.7696314
aF1576184582.7740657
aF1576184582.7780674
aF1576184582.7820506
aF1576184582.7864275
aF1576184582.7913158
aF1576184582.7957473
aF1576184582.800218
aF1576184582.804349
aF1576184582.8083997
aF1576184582.8126316
aF1576184582.8171349
aF1576184582.8213472
aF1576184582.8252811
aF1576184582.8294632
aF1576184582.8335326
aF1576184582.8376212
aF1576184582.8416638
aF1576184582.8457358
aF1576184582.8501227
aF1576184582.8544052
aF1576184582.8583677
aF1576184582.8624287
aF1576184582.866562
aF1576184582.8705552
aF1576184582.874451
aF1576184582.8784335
aF1576184582.8824487
as.