(lp0
(dp1
S'y'
p2
F-0.18649888038635254
sS'x'
p3
F1.5013577938079834
sa(dp4
g2
F-0.03310585021972656
sg3
F1.0795239210128784
sa(dp5
g2
F0.07458531856536865
sg3
F0.7131544351577759
sa(dp6
g2
F0.0800790786743164
sg3
F0.3148660361766815
sa(dp7
g2
F-0.03724551200866699
sg3
F-0.047569453716278076
sa(dp8
g2
F-0.2632889747619629
sg3
F-0.36155396699905396
sa(dp9
g2
F-0.5459356307983398
sg3
F-0.5853594541549683
sa(dp10
g2
F-0.9631083011627197
sg3
F-0.7545914053916931
sa(dp11
g2
F-1.4498469829559326
sg3
F-0.7532742023468018
sa(dp12
g2
F-1.6448319554328918
sg3
F-0.7037816047668457
sa(dp13
g2
F-1.839816927909851
sg3
F-0.6542890071868896
sa(dp14
g2
F-2.040599524974823
sg3
F-0.6485393047332764
sa(dp15
g2
F-2.241382122039795
sg3
F-0.6427896022796631
sa(dp16
g2
F-2.4310933351516724
sg3
F-0.7104910612106323
sa(dp17
g2
F-2.62080454826355
sg3
F-0.7781925201416016
sa(dp18
g2
F-2.7831199169158936
sg3
F-0.9062390327453613
sa(dp19
g2
F-2.9454352855682373
sg3
F-1.034285545349121
sa(dp20
g2
F-3.025643825531006
sg3
F-1.2148860692977905
sa(dp21
g2
F-3.1058523654937744
sg3
F-1.39548659324646
sa(dp22
g2
F-3.1090235710144043
sg3
F-1.5754883289337158
sa(dp23
g2
F-3.112194776535034
sg3
F-1.7554900646209717
sa(dp24
g2
F-3.0927969217300415
sg3
F-1.9289326667785645
sa(dp25
g2
F-3.073399066925049
sg3
F-2.1023752689361572
sa(dp26
g2
F-3.0700442790985107
sg3
F-2.292288303375244
sa(dp27
g2
F-3.0666894912719727
sg3
F-2.482201337814331
sa(dp28
g2
F-3.1190247535705566
sg3
F-2.6720887422561646
sa(dp29
g2
F-3.1713600158691406
sg3
F-2.861976146697998
sa(dp30
g2
F-3.3246543407440186
sg3
F-3.028851866722107
sa(dp31
g2
F-3.4779486656188965
sg3
F-3.195727586746216
sa(dp32
g2
F-3.7078347206115723
sg3
F-3.3352766036987305
sa(dp33
g2
F-3.937720775604248
sg3
F-3.474825620651245
sa(dp34
g2
F-4.166687250137329
sg3
F-3.576450824737549
sa(dp35
g2
F-4.39565372467041
sg3
F-3.6780760288238525
sa(dp36
g2
F-4.859910488128662
sg3
F-3.784323215484619
sa(dp37
g2
F-5.294441223144531
sg3
F-3.684028148651123
sa(dp38
g2
F-5.753296375274658
sg3
F-3.5434563159942627
sa(dp39
g2
F-6.1288350000000005
sg3
F-3.263648
sa(dp40
g2
F-6.478835
sg3
F-2.9136479999999993
sa(dp41
g2
F-6.678835
sg3
F-2.513648
sa(dp42
g2
F-6.778835
sg3
F-2.1136479999999995
sa(dp43
g2
F-6.778835
sg3
F-1.7136479999999992
sa(dp44
g2
F-6.6288350000000005
sg3
F-1.3136479999999997
sa(dp45
g2
F-6.278835
sg3
F-0.9136480000000002
sa(dp46
g2
F-5.8788350000000005
sg3
F-0.5136479999999999
sa(dp47
g2
F-5.528835
sg3
F-0.16364800000000024
sa(dp48
g2
F-5.1288350000000005
sg3
F0.13635200000000047
sa(dp49
g2
F-4.728835
sg3
F0.3863520000000005
sa(dp50
g2
F-4.328835
sg3
F0.6363520000000005
sa(dp51
g2
F-3.9288350000000003
sg3
F0.9863520000000001
sa(dp52
g2
F-3.528835
sg3
F1.3363520000000015
sa(dp53
g2
F-3.176971673965454
sg3
F1.630684733390808
sa(dp54
g2
F-2.7488276958465576
sg3
F1.874371886253357
sa(dp55
g2
F-2.3316197395324707
sg3
F2.1475327014923096
sa(dp56
g2
F-1.8901759386062622
sg3
F2.3733010292053223
sa(dp57
g2
F-1.409153938293457
sg3
F2.433589220046997
sa(dp58
g2
F-0.9782817363739014
sg3
F2.3502838611602783
sa(dp59
g2
F-0.6346607208251953
sg3
F2.1866812705993652
sa(dp60
g2
F-0.43714064359664917
sg3
F1.8946205377578735
sa.