(lp0
(dp1
S'y'
p2
F-0.18649888038635254
sS'x'
p3
F1.5013577938079834
sa(dp4
g2
F-0.03310585021972656
sg3
F1.0795239210128784
sa(dp5
g2
F0.07458531856536865
sg3
F0.7131544351577759
sa(dp6
g2
F0.0800790786743164
sg3
F0.3148660361766815
sa(dp7
g2
F-0.03724551200866699
sg3
F-0.047569453716278076
sa(dp8
g2
F-0.2632889747619629
sg3
F-0.36155396699905396
sa(dp9
g2
F-0.5459356307983398
sg3
F-0.5853594541549683
sa(dp10
g2
F-1.0574461221694946
sg3
F-0.7128804326057434
sa(dp11
g2
F-1.666338324546814
sg3
F-0.7257416248321533
sa(dp12
g2
F-2.300557851791382
sg3
F-0.7646164298057556
sa(dp13
g2
F-2.814995288848877
sg3
F-0.9377611875534058
sa(dp14
g2
F-3.0895118713378906
sg3
F-1.3599059581756592
sa(dp15
g2
F-3.2129580974578857
sg3
F-1.8510252237319946
sa(dp16
g2
F-3.2203173637390137
sg3
F-2.3816678524017334
sa(dp17
g2
F-3.324462413787842
sg3
F-2.7847177982330322
sa(dp18
g2
F-3.615633964538574
sg3
F-3.1372902393341064
sa(dp19
g2
F-3.943910598754883
sg3
F-3.4202287197113037
sa(dp20
g2
F-4.39565372467041
sg3
F-3.6780760288238525
sa(dp21
g2
F-4.859910488128662
sg3
F-3.784323215484619
sa(dp22
g2
F-5.294441223144531
sg3
F-3.684028148651123
sa(dp23
g2
F-5.753296375274658
sg3
F-3.5434563159942627
sa(dp24
g2
F-6.1288350000000005
sg3
F-3.263648
sa(dp25
g2
F-6.478835
sg3
F-2.9136479999999993
sa(dp26
g2
F-6.693248748779297
sg3
F-2.5233230590820312
sa(dp27
g2
F-6.824575901031494
sg3
F-2.1220545768737793
sa(dp28
g2
F-6.822568416595459
sg3
F-1.7006057500839233
sa(dp29
g2
F-6.682734489440918
sg3
F-1.266709804534912
sa(dp30
g2
F-6.388223648071289
sg3
F-0.8289674520492554
sa(dp31
g2
F-5.9401726722717285
sg3
F-0.4671030640602112
sa(dp32
g2
F-5.1288350000000005
sg3
F0.13635200000000047
sa(dp33
g2
F-4.07112979888916
sg3
F0.9288119673728943
sa(dp34
g2
F-3.0776565074920654
sg3
F1.7121007442474365
sa(dp35
g2
F-2.3316197395324707
sg3
F2.1475327014923096
sa(dp36
g2
F-1.8901759386062622
sg3
F2.3733010292053223
sa(dp37
g2
F-0.9782817363739014
sg3
F2.3502838611602783
sa(dp38
g2
F-0.6346607208251953
sg3
F2.1866812705993652
sa(dp39
g2
F-0.43714064359664917
sg3
F1.8946205377578735
sa.