(lp0
(dp1
S'y'
p2
F1.2360013723373413
sS'x'
p3
F-1.6028858423233032
sa(dp4
g2
F1.0615354776382446
sg3
F-1.8951548337936401
sa(dp5
g2
F0.6943610000000007
sg3
F-2.2262129999999996
sa(dp6
g2
F0.2943610000000003
sg3
F-2.5262129999999994
sa(dp7
g2
F-0.10563900000000004
sg3
F-2.826212999999999
sa(dp8
g2
F-0.5056390000000004
sg3
F-3.2262129999999996
sa(dp9
g2
F-0.9763640761375427
sg3
F-3.595036506652832
sa(dp10
g2
F-1.4365640878677368
sg3
F-3.9291489124298096
sa(dp11
g2
F-1.7056390000000006
sg3
F-4.126212999999999
sa(dp12
g2
F-2.069817543029785
sg3
F-4.39757776260376
sa(dp13
g2
F-2.4948132038116455
sg3
F-4.677793979644775
sa(dp14
g2
F-2.9056390000000007
sg3
F-4.9762129999999996
sa(dp15
g2
F-3.2967307567596436
sg3
F-5.160888195037842
sa(dp16
g2
F-3.7056390000000006
sg3
F-5.2262129999999996
sa(dp17
g2
F-4.105639
sg3
F-5.126212999999999
sa(dp18
g2
F-4.505639
sg3
F-5.026212999999999
sa(dp19
g2
F-4.905639000000001
sg3
F-4.826212999999999
sa(dp20
g2
F-5.232100009918213
sg3
F-4.580545425415039
sa(dp21
g2
F-5.550455570220947
sg3
F-4.214028835296631
sa(dp22
g2
F-5.703343868255615
sg3
F-3.813189744949341
sa(dp23
g2
F-5.755958557128906
sg3
F-3.4208855628967285
sa(dp24
g2
F-5.574656963348389
sg3
F-3.0454490184783936
sa(dp25
g2
F-5.273238658905029
sg3
F-2.7384185791015625
sa(dp26
g2
F-4.9076247215271
sg3
F-2.474008321762085
sa(dp27
g2
F-4.583392143249512
sg3
F-2.291856050491333
sa(dp28
g2
F-4.244262218475342
sg3
F-2.252589225769043
sa(dp29
g2
F-4.002287864685059
sg3
F-2.2852156162261963
sa(dp30
g2
F-3.751351833343506
sg3
F-2.3156280517578125
sa(dp31
g2
F-3.4056390000000007
sg3
F-2.376212999999999
sa(dp32
g2
F-3.0056390000000004
sg3
F-2.376212999999999
sa(dp33
g2
F-2.605639
sg3
F-2.2762129999999994
sa(dp34
g2
F-2.2056390000000006
sg3
F-1.9762129999999996
sa(dp35
g2
F-1.9556390000000006
sg3
F-1.5762129999999992
sa(dp36
g2
F-1.855639
sg3
F-1.1762129999999988
sa(dp37
g2
F-1.9056390000000007
sg3
F-0.7762129999999985
sa(dp38
g2
F-2.0056390000000004
sg3
F-0.37621299999999813
sa(dp39
g2
F-2.055639
sg3
F0.023787000000000447
sa(dp40
g2
F-2.055639
sg3
F0.4237870000000008
sa(dp41
g2
F-1.9556390000000006
sg3
F0.8237870000000012
sa(dp42
g2
F-1.605639
sg3
F1.1737870000000008
sa(dp43
g2
F-1.2056389999999997
sg3
F1.3237870000000012
sa(dp44
g2
F-0.8056390000000011
sg3
F1.2737870000000004
sa(dp45
g2
F-0.40563900000000075
sg3
F1.1737870000000008
sa(dp46
g2
F-0.005639000000000394
sg3
F0.9237870000000008
sa(dp47
g2
F0.39436099999999996
sg3
F0.5237870000000004
sa(dp48
g2
F0.7443609999999996
sg3
F0.12378700000000187
sa(dp49
g2
F1.0443610000000003
sg3
F-0.2762129999999985
sa(dp50
g2
F1.2943610000000003
sg3
F-0.6762129999999988
sa(dp51
g2
F1.4038387537002563
sg3
F-1.0388429164886475
sa(dp52
g2
F1.3511255979537964
sg3
F-1.335326075553894
sa.